

Microchip MPLAB XC8 Assembler V2.05 build -831301201 
                                                                                               Mon May 25 16:26:47 2020

Microchip MPLAB XC8 C Compiler v2.05 (Free license) build 20181220022703 Og1 
     1                           	processor	16F1708
     2                           	opt	pw 120
     3                           	opt	flic
     4                           	psect	idataBANK0,global,class=CODE,delta=2
     5                           	psect	cinit,global,class=CODE,merge=1,delta=2
     6                           	psect	dataBANK0,global,class=BANK0,space=1,delta=1
     7                           	psect	inittext,global,class=CODE,delta=2
     8                           	psect	cstackCOMMON,global,class=COMMON,space=1,delta=1
     9                           	psect	cstackBANK0,global,class=BANK0,space=1,delta=1
    10                           	psect	maintext,global,class=CODE,merge=1,split=1,delta=2
    11                           	psect	text1,local,class=CODE,merge=1,delta=2
    12                           	psect	text2,local,class=CODE,merge=1,delta=2
    13                           	psect	text3,local,class=CODE,merge=1,delta=2
    14                           	psect	text4,local,class=CODE,merge=1,delta=2
    15                           	psect	text5,local,class=CODE,merge=1,delta=2
    16                           	psect	text6,local,class=CODE,merge=1,delta=2
    17                           	dabs	1,0x7E,2
    18  0000                     
    19                           ; Version 2.05
    20                           ; Generated 20/12/2018 GMT
    21                           ; 
    22                           ; Copyright © 2018, Microchip Technology Inc. and its subsidiaries ("Microchip")
    23                           ; All rights reserved.
    24                           ; 
    25                           ; This software is developed by Microchip Technology Inc. and its subsidiaries ("Microch
      +                          ip").
    26                           ; 
    27                           ; Redistribution and use in source and binary forms, with or without modification, are
    28                           ; permitted provided that the following conditions are met:
    29                           ; 
    30                           ;     1. Redistributions of source code must retain the above copyright notice, this lis
      +                          t of
    31                           ;        conditions and the following disclaimer.
    32                           ; 
    33                           ;     2. Redistributions in binary form must reproduce the above copyright notice, this 
      +                          list
    34                           ;        of conditions and the following disclaimer in the documentation and/or other
    35                           ;        materials provided with the distribution.
    36                           ; 
    37                           ;     3. Microchip's name may not be used to endorse or promote products derived from th
      +                          is
    38                           ;        software without specific prior written permission.
    39                           ; 
    40                           ; THIS SOFTWARE IS PROVIDED BY MICROCHIP "AS IS" AND ANY EXPRESS OR IMPLIED WARRANTIES,
    41                           ; INCLUDING, BUT NOT LIMITED TO, THE IMPLIED WARRANTIES OF MERCHANTABILITY AND FITNESS F
      +                          OR
    42                           ; PURPOSE ARE DISCLAIMED.  IN NO EVENT SHALL MICROCHIP BE LIABLE FOR ANY DIRECT, INDIREC
      +                          T,
    43                           ; INCIDENTAL, SPECIAL, EXEMPLARY, OR CONSEQUENTIAL DAMAGES (INCLUDING BUT NOT LIMITED TO
    44                           ; PROCUREMENT OF SUBSTITUTE GOODS OR SERVICES; LOSS OF USE, DATA OR PROFITS; OR BUSINESS
    45                           ; INTERRUPTION) HOWSOEVER CAUSED AND ON ANY THEORY OF LIABILITY, WHETHER IN CONTRACT, ST
      +                          RICT
    46                           ; LIABILITY, OR TORT (INCLUDING NEGLIGENCE OR OTHERWISE) ARISING IN ANY WAY OUT OF THE U
      +                          SE OF
    47                           ; THIS SOFTWARE, EVEN IF ADVISED OF THE POSSIBILITY OF SUCH DAMAGE.
    48                           ; 
    49                           ; 
    50                           ; Code-generator required, PIC16F1708 Definitions
    51                           ; 
    52                           ; SFR Addresses
    53  0000                     	;# 
    54  0001                     	;# 
    55  0002                     	;# 
    56  0003                     	;# 
    57  0004                     	;# 
    58  0005                     	;# 
    59  0006                     	;# 
    60  0007                     	;# 
    61  0008                     	;# 
    62  0009                     	;# 
    63  000A                     	;# 
    64  000B                     	;# 
    65  000C                     	;# 
    66  000D                     	;# 
    67  000E                     	;# 
    68  0011                     	;# 
    69  0012                     	;# 
    70  0013                     	;# 
    71  0015                     	;# 
    72  0016                     	;# 
    73  0016                     	;# 
    74  0017                     	;# 
    75  0018                     	;# 
    76  0019                     	;# 
    77  001A                     	;# 
    78  001B                     	;# 
    79  001C                     	;# 
    80  008C                     	;# 
    81  008D                     	;# 
    82  008E                     	;# 
    83  0091                     	;# 
    84  0092                     	;# 
    85  0093                     	;# 
    86  0095                     	;# 
    87  0096                     	;# 
    88  0097                     	;# 
    89  0098                     	;# 
    90  0099                     	;# 
    91  009A                     	;# 
    92  009B                     	;# 
    93  009B                     	;# 
    94  009C                     	;# 
    95  009D                     	;# 
    96  009E                     	;# 
    97  009F                     	;# 
    98  010C                     	;# 
    99  010D                     	;# 
   100  010E                     	;# 
   101  0111                     	;# 
   102  0112                     	;# 
   103  0113                     	;# 
   104  0114                     	;# 
   105  0115                     	;# 
   106  0116                     	;# 
   107  0117                     	;# 
   108  0118                     	;# 
   109  0119                     	;# 
   110  011C                     	;# 
   111  018C                     	;# 
   112  018D                     	;# 
   113  018E                     	;# 
   114  0191                     	;# 
   115  0191                     	;# 
   116  0192                     	;# 
   117  0193                     	;# 
   118  0193                     	;# 
   119  0194                     	;# 
   120  0195                     	;# 
   121  0196                     	;# 
   122  0197                     	;# 
   123  0199                     	;# 
   124  0199                     	;# 
   125  0199                     	;# 
   126  019A                     	;# 
   127  019A                     	;# 
   128  019A                     	;# 
   129  019B                     	;# 
   130  019B                     	;# 
   131  019B                     	;# 
   132  019B                     	;# 
   133  019B                     	;# 
   134  019C                     	;# 
   135  019C                     	;# 
   136  019C                     	;# 
   137  019D                     	;# 
   138  019D                     	;# 
   139  019D                     	;# 
   140  019E                     	;# 
   141  019E                     	;# 
   142  019E                     	;# 
   143  019F                     	;# 
   144  019F                     	;# 
   145  019F                     	;# 
   146  019F                     	;# 
   147  019F                     	;# 
   148  020C                     	;# 
   149  020D                     	;# 
   150  020E                     	;# 
   151  0211                     	;# 
   152  0211                     	;# 
   153  0212                     	;# 
   154  0212                     	;# 
   155  0213                     	;# 
   156  0213                     	;# 
   157  0214                     	;# 
   158  0214                     	;# 
   159  0215                     	;# 
   160  0215                     	;# 
   161  0215                     	;# 
   162  0215                     	;# 
   163  0216                     	;# 
   164  0216                     	;# 
   165  0217                     	;# 
   166  0217                     	;# 
   167  028C                     	;# 
   168  028D                     	;# 
   169  028E                     	;# 
   170  0291                     	;# 
   171  0291                     	;# 
   172  0292                     	;# 
   173  0293                     	;# 
   174  0293                     	;# 
   175  0298                     	;# 
   176  0298                     	;# 
   177  0299                     	;# 
   178  029A                     	;# 
   179  029A                     	;# 
   180  029E                     	;# 
   181  030C                     	;# 
   182  030D                     	;# 
   183  030E                     	;# 
   184  038C                     	;# 
   185  038D                     	;# 
   186  038E                     	;# 
   187  0391                     	;# 
   188  0392                     	;# 
   189  0393                     	;# 
   190  0394                     	;# 
   191  0395                     	;# 
   192  0396                     	;# 
   193  0397                     	;# 
   194  0398                     	;# 
   195  0399                     	;# 
   196  0415                     	;# 
   197  0416                     	;# 
   198  0417                     	;# 
   199  041C                     	;# 
   200  041D                     	;# 
   201  041E                     	;# 
   202  0511                     	;# 
   203  0515                     	;# 
   204  0617                     	;# 
   205  0618                     	;# 
   206  0619                     	;# 
   207  0619                     	;# 
   208  061A                     	;# 
   209  061B                     	;# 
   210  061C                     	;# 
   211  061C                     	;# 
   212  0691                     	;# 
   213  0692                     	;# 
   214  0693                     	;# 
   215  0694                     	;# 
   216  0695                     	;# 
   217  0696                     	;# 
   218  0697                     	;# 
   219  0698                     	;# 
   220  0699                     	;# 
   221  069A                     	;# 
   222  069B                     	;# 
   223  069C                     	;# 
   224  069D                     	;# 
   225  069E                     	;# 
   226  069F                     	;# 
   227  0E0F                     	;# 
   228  0E10                     	;# 
   229  0E11                     	;# 
   230  0E12                     	;# 
   231  0E13                     	;# 
   232  0E14                     	;# 
   233  0E15                     	;# 
   234  0E17                     	;# 
   235  0E20                     	;# 
   236  0E21                     	;# 
   237  0E22                     	;# 
   238  0E24                     	;# 
   239  0E25                     	;# 
   240  0E28                     	;# 
   241  0E29                     	;# 
   242  0E2A                     	;# 
   243  0E2B                     	;# 
   244  0E90                     	;# 
   245  0E91                     	;# 
   246  0E92                     	;# 
   247  0E94                     	;# 
   248  0E95                     	;# 
   249  0E9C                     	;# 
   250  0E9D                     	;# 
   251  0E9E                     	;# 
   252  0E9F                     	;# 
   253  0EA0                     	;# 
   254  0EA1                     	;# 
   255  0EA2                     	;# 
   256  0EA3                     	;# 
   257  0EA4                     	;# 
   258  0EA5                     	;# 
   259  0EA6                     	;# 
   260  0EA7                     	;# 
   261  0F0F                     	;# 
   262  0F10                     	;# 
   263  0F11                     	;# 
   264  0F12                     	;# 
   265  0F13                     	;# 
   266  0F14                     	;# 
   267  0F15                     	;# 
   268  0F16                     	;# 
   269  0F17                     	;# 
   270  0F18                     	;# 
   271  0F19                     	;# 
   272  0F1A                     	;# 
   273  0F1B                     	;# 
   274  0F1C                     	;# 
   275  0F1D                     	;# 
   276  0F1E                     	;# 
   277  0F1F                     	;# 
   278  0F20                     	;# 
   279  0F21                     	;# 
   280  0F22                     	;# 
   281  0F23                     	;# 
   282  0F24                     	;# 
   283  0F25                     	;# 
   284  0F26                     	;# 
   285  0F27                     	;# 
   286  0F28                     	;# 
   287  0F29                     	;# 
   288  0F2A                     	;# 
   289  0F2B                     	;# 
   290  0F2C                     	;# 
   291  0F2D                     	;# 
   292  0FE4                     	;# 
   293  0FE5                     	;# 
   294  0FE6                     	;# 
   295  0FE7                     	;# 
   296  0FE8                     	;# 
   297  0FE9                     	;# 
   298  0FEA                     	;# 
   299  0FEB                     	;# 
   300  0FED                     	;# 
   301  0FEE                     	;# 
   302  0FEF                     	;# 
   303  0000                     	;# 
   304  0001                     	;# 
   305  0002                     	;# 
   306  0003                     	;# 
   307  0004                     	;# 
   308  0005                     	;# 
   309  0006                     	;# 
   310  0007                     	;# 
   311  0008                     	;# 
   312  0009                     	;# 
   313  000A                     	;# 
   314  000B                     	;# 
   315  000C                     	;# 
   316  000D                     	;# 
   317  000E                     	;# 
   318  0011                     	;# 
   319  0012                     	;# 
   320  0013                     	;# 
   321  0015                     	;# 
   322  0016                     	;# 
   323  0016                     	;# 
   324  0017                     	;# 
   325  0018                     	;# 
   326  0019                     	;# 
   327  001A                     	;# 
   328  001B                     	;# 
   329  001C                     	;# 
   330  008C                     	;# 
   331  008D                     	;# 
   332  008E                     	;# 
   333  0091                     	;# 
   334  0092                     	;# 
   335  0093                     	;# 
   336  0095                     	;# 
   337  0096                     	;# 
   338  0097                     	;# 
   339  0098                     	;# 
   340  0099                     	;# 
   341  009A                     	;# 
   342  009B                     	;# 
   343  009B                     	;# 
   344  009C                     	;# 
   345  009D                     	;# 
   346  009E                     	;# 
   347  009F                     	;# 
   348  010C                     	;# 
   349  010D                     	;# 
   350  010E                     	;# 
   351  0111                     	;# 
   352  0112                     	;# 
   353  0113                     	;# 
   354  0114                     	;# 
   355  0115                     	;# 
   356  0116                     	;# 
   357  0117                     	;# 
   358  0118                     	;# 
   359  0119                     	;# 
   360  011C                     	;# 
   361  018C                     	;# 
   362  018D                     	;# 
   363  018E                     	;# 
   364  0191                     	;# 
   365  0191                     	;# 
   366  0192                     	;# 
   367  0193                     	;# 
   368  0193                     	;# 
   369  0194                     	;# 
   370  0195                     	;# 
   371  0196                     	;# 
   372  0197                     	;# 
   373  0199                     	;# 
   374  0199                     	;# 
   375  0199                     	;# 
   376  019A                     	;# 
   377  019A                     	;# 
   378  019A                     	;# 
   379  019B                     	;# 
   380  019B                     	;# 
   381  019B                     	;# 
   382  019B                     	;# 
   383  019B                     	;# 
   384  019C                     	;# 
   385  019C                     	;# 
   386  019C                     	;# 
   387  019D                     	;# 
   388  019D                     	;# 
   389  019D                     	;# 
   390  019E                     	;# 
   391  019E                     	;# 
   392  019E                     	;# 
   393  019F                     	;# 
   394  019F                     	;# 
   395  019F                     	;# 
   396  019F                     	;# 
   397  019F                     	;# 
   398  020C                     	;# 
   399  020D                     	;# 
   400  020E                     	;# 
   401  0211                     	;# 
   402  0211                     	;# 
   403  0212                     	;# 
   404  0212                     	;# 
   405  0213                     	;# 
   406  0213                     	;# 
   407  0214                     	;# 
   408  0214                     	;# 
   409  0215                     	;# 
   410  0215                     	;# 
   411  0215                     	;# 
   412  0215                     	;# 
   413  0216                     	;# 
   414  0216                     	;# 
   415  0217                     	;# 
   416  0217                     	;# 
   417  028C                     	;# 
   418  028D                     	;# 
   419  028E                     	;# 
   420  0291                     	;# 
   421  0291                     	;# 
   422  0292                     	;# 
   423  0293                     	;# 
   424  0293                     	;# 
   425  0298                     	;# 
   426  0298                     	;# 
   427  0299                     	;# 
   428  029A                     	;# 
   429  029A                     	;# 
   430  029E                     	;# 
   431  030C                     	;# 
   432  030D                     	;# 
   433  030E                     	;# 
   434  038C                     	;# 
   435  038D                     	;# 
   436  038E                     	;# 
   437  0391                     	;# 
   438  0392                     	;# 
   439  0393                     	;# 
   440  0394                     	;# 
   441  0395                     	;# 
   442  0396                     	;# 
   443  0397                     	;# 
   444  0398                     	;# 
   445  0399                     	;# 
   446  0415                     	;# 
   447  0416                     	;# 
   448  0417                     	;# 
   449  041C                     	;# 
   450  041D                     	;# 
   451  041E                     	;# 
   452  0511                     	;# 
   453  0515                     	;# 
   454  0617                     	;# 
   455  0618                     	;# 
   456  0619                     	;# 
   457  0619                     	;# 
   458  061A                     	;# 
   459  061B                     	;# 
   460  061C                     	;# 
   461  061C                     	;# 
   462  0691                     	;# 
   463  0692                     	;# 
   464  0693                     	;# 
   465  0694                     	;# 
   466  0695                     	;# 
   467  0696                     	;# 
   468  0697                     	;# 
   469  0698                     	;# 
   470  0699                     	;# 
   471  069A                     	;# 
   472  069B                     	;# 
   473  069C                     	;# 
   474  069D                     	;# 
   475  069E                     	;# 
   476  069F                     	;# 
   477  0E0F                     	;# 
   478  0E10                     	;# 
   479  0E11                     	;# 
   480  0E12                     	;# 
   481  0E13                     	;# 
   482  0E14                     	;# 
   483  0E15                     	;# 
   484  0E17                     	;# 
   485  0E20                     	;# 
   486  0E21                     	;# 
   487  0E22                     	;# 
   488  0E24                     	;# 
   489  0E25                     	;# 
   490  0E28                     	;# 
   491  0E29                     	;# 
   492  0E2A                     	;# 
   493  0E2B                     	;# 
   494  0E90                     	;# 
   495  0E91                     	;# 
   496  0E92                     	;# 
   497  0E94                     	;# 
   498  0E95                     	;# 
   499  0E9C                     	;# 
   500  0E9D                     	;# 
   501  0E9E                     	;# 
   502  0E9F                     	;# 
   503  0EA0                     	;# 
   504  0EA1                     	;# 
   505  0EA2                     	;# 
   506  0EA3                     	;# 
   507  0EA4                     	;# 
   508  0EA5                     	;# 
   509  0EA6                     	;# 
   510  0EA7                     	;# 
   511  0F0F                     	;# 
   512  0F10                     	;# 
   513  0F11                     	;# 
   514  0F12                     	;# 
   515  0F13                     	;# 
   516  0F14                     	;# 
   517  0F15                     	;# 
   518  0F16                     	;# 
   519  0F17                     	;# 
   520  0F18                     	;# 
   521  0F19                     	;# 
   522  0F1A                     	;# 
   523  0F1B                     	;# 
   524  0F1C                     	;# 
   525  0F1D                     	;# 
   526  0F1E                     	;# 
   527  0F1F                     	;# 
   528  0F20                     	;# 
   529  0F21                     	;# 
   530  0F22                     	;# 
   531  0F23                     	;# 
   532  0F24                     	;# 
   533  0F25                     	;# 
   534  0F26                     	;# 
   535  0F27                     	;# 
   536  0F28                     	;# 
   537  0F29                     	;# 
   538  0F2A                     	;# 
   539  0F2B                     	;# 
   540  0F2C                     	;# 
   541  0F2D                     	;# 
   542  0FE4                     	;# 
   543  0FE5                     	;# 
   544  0FE6                     	;# 
   545  0FE7                     	;# 
   546  0FE8                     	;# 
   547  0FE9                     	;# 
   548  0FEA                     	;# 
   549  0FEB                     	;# 
   550  0FED                     	;# 
   551  0FEE                     	;# 
   552  0FEF                     	;# 
   553  0000                     	;# 
   554  0001                     	;# 
   555  0002                     	;# 
   556  0003                     	;# 
   557  0004                     	;# 
   558  0005                     	;# 
   559  0006                     	;# 
   560  0007                     	;# 
   561  0008                     	;# 
   562  0009                     	;# 
   563  000A                     	;# 
   564  000B                     	;# 
   565  000C                     	;# 
   566  000D                     	;# 
   567  000E                     	;# 
   568  0011                     	;# 
   569  0012                     	;# 
   570  0013                     	;# 
   571  0015                     	;# 
   572  0016                     	;# 
   573  0016                     	;# 
   574  0017                     	;# 
   575  0018                     	;# 
   576  0019                     	;# 
   577  001A                     	;# 
   578  001B                     	;# 
   579  001C                     	;# 
   580  008C                     	;# 
   581  008D                     	;# 
   582  008E                     	;# 
   583  0091                     	;# 
   584  0092                     	;# 
   585  0093                     	;# 
   586  0095                     	;# 
   587  0096                     	;# 
   588  0097                     	;# 
   589  0098                     	;# 
   590  0099                     	;# 
   591  009A                     	;# 
   592  009B                     	;# 
   593  009B                     	;# 
   594  009C                     	;# 
   595  009D                     	;# 
   596  009E                     	;# 
   597  009F                     	;# 
   598  010C                     	;# 
   599  010D                     	;# 
   600  010E                     	;# 
   601  0111                     	;# 
   602  0112                     	;# 
   603  0113                     	;# 
   604  0114                     	;# 
   605  0115                     	;# 
   606  0116                     	;# 
   607  0117                     	;# 
   608  0118                     	;# 
   609  0119                     	;# 
   610  011C                     	;# 
   611  018C                     	;# 
   612  018D                     	;# 
   613  018E                     	;# 
   614  0191                     	;# 
   615  0191                     	;# 
   616  0192                     	;# 
   617  0193                     	;# 
   618  0193                     	;# 
   619  0194                     	;# 
   620  0195                     	;# 
   621  0196                     	;# 
   622  0197                     	;# 
   623  0199                     	;# 
   624  0199                     	;# 
   625  0199                     	;# 
   626  019A                     	;# 
   627  019A                     	;# 
   628  019A                     	;# 
   629  019B                     	;# 
   630  019B                     	;# 
   631  019B                     	;# 
   632  019B                     	;# 
   633  019B                     	;# 
   634  019C                     	;# 
   635  019C                     	;# 
   636  019C                     	;# 
   637  019D                     	;# 
   638  019D                     	;# 
   639  019D                     	;# 
   640  019E                     	;# 
   641  019E                     	;# 
   642  019E                     	;# 
   643  019F                     	;# 
   644  019F                     	;# 
   645  019F                     	;# 
   646  019F                     	;# 
   647  019F                     	;# 
   648  020C                     	;# 
   649  020D                     	;# 
   650  020E                     	;# 
   651  0211                     	;# 
   652  0211                     	;# 
   653  0212                     	;# 
   654  0212                     	;# 
   655  0213                     	;# 
   656  0213                     	;# 
   657  0214                     	;# 
   658  0214                     	;# 
   659  0215                     	;# 
   660  0215                     	;# 
   661  0215                     	;# 
   662  0215                     	;# 
   663  0216                     	;# 
   664  0216                     	;# 
   665  0217                     	;# 
   666  0217                     	;# 
   667  028C                     	;# 
   668  028D                     	;# 
   669  028E                     	;# 
   670  0291                     	;# 
   671  0291                     	;# 
   672  0292                     	;# 
   673  0293                     	;# 
   674  0293                     	;# 
   675  0298                     	;# 
   676  0298                     	;# 
   677  0299                     	;# 
   678  029A                     	;# 
   679  029A                     	;# 
   680  029E                     	;# 
   681  030C                     	;# 
   682  030D                     	;# 
   683  030E                     	;# 
   684  038C                     	;# 
   685  038D                     	;# 
   686  038E                     	;# 
   687  0391                     	;# 
   688  0392                     	;# 
   689  0393                     	;# 
   690  0394                     	;# 
   691  0395                     	;# 
   692  0396                     	;# 
   693  0397                     	;# 
   694  0398                     	;# 
   695  0399                     	;# 
   696  0415                     	;# 
   697  0416                     	;# 
   698  0417                     	;# 
   699  041C                     	;# 
   700  041D                     	;# 
   701  041E                     	;# 
   702  0511                     	;# 
   703  0515                     	;# 
   704  0617                     	;# 
   705  0618                     	;# 
   706  0619                     	;# 
   707  0619                     	;# 
   708  061A                     	;# 
   709  061B                     	;# 
   710  061C                     	;# 
   711  061C                     	;# 
   712  0691                     	;# 
   713  0692                     	;# 
   714  0693                     	;# 
   715  0694                     	;# 
   716  0695                     	;# 
   717  0696                     	;# 
   718  0697                     	;# 
   719  0698                     	;# 
   720  0699                     	;# 
   721  069A                     	;# 
   722  069B                     	;# 
   723  069C                     	;# 
   724  069D                     	;# 
   725  069E                     	;# 
   726  069F                     	;# 
   727  0E0F                     	;# 
   728  0E10                     	;# 
   729  0E11                     	;# 
   730  0E12                     	;# 
   731  0E13                     	;# 
   732  0E14                     	;# 
   733  0E15                     	;# 
   734  0E17                     	;# 
   735  0E20                     	;# 
   736  0E21                     	;# 
   737  0E22                     	;# 
   738  0E24                     	;# 
   739  0E25                     	;# 
   740  0E28                     	;# 
   741  0E29                     	;# 
   742  0E2A                     	;# 
   743  0E2B                     	;# 
   744  0E90                     	;# 
   745  0E91                     	;# 
   746  0E92                     	;# 
   747  0E94                     	;# 
   748  0E95                     	;# 
   749  0E9C                     	;# 
   750  0E9D                     	;# 
   751  0E9E                     	;# 
   752  0E9F                     	;# 
   753  0EA0                     	;# 
   754  0EA1                     	;# 
   755  0EA2                     	;# 
   756  0EA3                     	;# 
   757  0EA4                     	;# 
   758  0EA5                     	;# 
   759  0EA6                     	;# 
   760  0EA7                     	;# 
   761  0F0F                     	;# 
   762  0F10                     	;# 
   763  0F11                     	;# 
   764  0F12                     	;# 
   765  0F13                     	;# 
   766  0F14                     	;# 
   767  0F15                     	;# 
   768  0F16                     	;# 
   769  0F17                     	;# 
   770  0F18                     	;# 
   771  0F19                     	;# 
   772  0F1A                     	;# 
   773  0F1B                     	;# 
   774  0F1C                     	;# 
   775  0F1D                     	;# 
   776  0F1E                     	;# 
   777  0F1F                     	;# 
   778  0F20                     	;# 
   779  0F21                     	;# 
   780  0F22                     	;# 
   781  0F23                     	;# 
   782  0F24                     	;# 
   783  0F25                     	;# 
   784  0F26                     	;# 
   785  0F27                     	;# 
   786  0F28                     	;# 
   787  0F29                     	;# 
   788  0F2A                     	;# 
   789  0F2B                     	;# 
   790  0F2C                     	;# 
   791  0F2D                     	;# 
   792  0FE4                     	;# 
   793  0FE5                     	;# 
   794  0FE6                     	;# 
   795  0FE7                     	;# 
   796  0FE8                     	;# 
   797  0FE9                     	;# 
   798  0FEA                     	;# 
   799  0FEB                     	;# 
   800  0FED                     	;# 
   801  0FEE                     	;# 
   802  0FEF                     	;# 
   803  0000                     	;# 
   804  0001                     	;# 
   805  0002                     	;# 
   806  0003                     	;# 
   807  0004                     	;# 
   808  0005                     	;# 
   809  0006                     	;# 
   810  0007                     	;# 
   811  0008                     	;# 
   812  0009                     	;# 
   813  000A                     	;# 
   814  000B                     	;# 
   815  000C                     	;# 
   816  000D                     	;# 
   817  000E                     	;# 
   818  0011                     	;# 
   819  0012                     	;# 
   820  0013                     	;# 
   821  0015                     	;# 
   822  0016                     	;# 
   823  0016                     	;# 
   824  0017                     	;# 
   825  0018                     	;# 
   826  0019                     	;# 
   827  001A                     	;# 
   828  001B                     	;# 
   829  001C                     	;# 
   830  008C                     	;# 
   831  008D                     	;# 
   832  008E                     	;# 
   833  0091                     	;# 
   834  0092                     	;# 
   835  0093                     	;# 
   836  0095                     	;# 
   837  0096                     	;# 
   838  0097                     	;# 
   839  0098                     	;# 
   840  0099                     	;# 
   841  009A                     	;# 
   842  009B                     	;# 
   843  009B                     	;# 
   844  009C                     	;# 
   845  009D                     	;# 
   846  009E                     	;# 
   847  009F                     	;# 
   848  010C                     	;# 
   849  010D                     	;# 
   850  010E                     	;# 
   851  0111                     	;# 
   852  0112                     	;# 
   853  0113                     	;# 
   854  0114                     	;# 
   855  0115                     	;# 
   856  0116                     	;# 
   857  0117                     	;# 
   858  0118                     	;# 
   859  0119                     	;# 
   860  011C                     	;# 
   861  018C                     	;# 
   862  018D                     	;# 
   863  018E                     	;# 
   864  0191                     	;# 
   865  0191                     	;# 
   866  0192                     	;# 
   867  0193                     	;# 
   868  0193                     	;# 
   869  0194                     	;# 
   870  0195                     	;# 
   871  0196                     	;# 
   872  0197                     	;# 
   873  0199                     	;# 
   874  0199                     	;# 
   875  0199                     	;# 
   876  019A                     	;# 
   877  019A                     	;# 
   878  019A                     	;# 
   879  019B                     	;# 
   880  019B                     	;# 
   881  019B                     	;# 
   882  019B                     	;# 
   883  019B                     	;# 
   884  019C                     	;# 
   885  019C                     	;# 
   886  019C                     	;# 
   887  019D                     	;# 
   888  019D                     	;# 
   889  019D                     	;# 
   890  019E                     	;# 
   891  019E                     	;# 
   892  019E                     	;# 
   893  019F                     	;# 
   894  019F                     	;# 
   895  019F                     	;# 
   896  019F                     	;# 
   897  019F                     	;# 
   898  020C                     	;# 
   899  020D                     	;# 
   900  020E                     	;# 
   901  0211                     	;# 
   902  0211                     	;# 
   903  0212                     	;# 
   904  0212                     	;# 
   905  0213                     	;# 
   906  0213                     	;# 
   907  0214                     	;# 
   908  0214                     	;# 
   909  0215                     	;# 
   910  0215                     	;# 
   911  0215                     	;# 
   912  0215                     	;# 
   913  0216                     	;# 
   914  0216                     	;# 
   915  0217                     	;# 
   916  0217                     	;# 
   917  028C                     	;# 
   918  028D                     	;# 
   919  028E                     	;# 
   920  0291                     	;# 
   921  0291                     	;# 
   922  0292                     	;# 
   923  0293                     	;# 
   924  0293                     	;# 
   925  0298                     	;# 
   926  0298                     	;# 
   927  0299                     	;# 
   928  029A                     	;# 
   929  029A                     	;# 
   930  029E                     	;# 
   931  030C                     	;# 
   932  030D                     	;# 
   933  030E                     	;# 
   934  038C                     	;# 
   935  038D                     	;# 
   936  038E                     	;# 
   937  0391                     	;# 
   938  0392                     	;# 
   939  0393                     	;# 
   940  0394                     	;# 
   941  0395                     	;# 
   942  0396                     	;# 
   943  0397                     	;# 
   944  0398                     	;# 
   945  0399                     	;# 
   946  0415                     	;# 
   947  0416                     	;# 
   948  0417                     	;# 
   949  041C                     	;# 
   950  041D                     	;# 
   951  041E                     	;# 
   952  0511                     	;# 
   953  0515                     	;# 
   954  0617                     	;# 
   955  0618                     	;# 
   956  0619                     	;# 
   957  0619                     	;# 
   958  061A                     	;# 
   959  061B                     	;# 
   960  061C                     	;# 
   961  061C                     	;# 
   962  0691                     	;# 
   963  0692                     	;# 
   964  0693                     	;# 
   965  0694                     	;# 
   966  0695                     	;# 
   967  0696                     	;# 
   968  0697                     	;# 
   969  0698                     	;# 
   970  0699                     	;# 
   971  069A                     	;# 
   972  069B                     	;# 
   973  069C                     	;# 
   974  069D                     	;# 
   975  069E                     	;# 
   976  069F                     	;# 
   977  0E0F                     	;# 
   978  0E10                     	;# 
   979  0E11                     	;# 
   980  0E12                     	;# 
   981  0E13                     	;# 
   982  0E14                     	;# 
   983  0E15                     	;# 
   984  0E17                     	;# 
   985  0E20                     	;# 
   986  0E21                     	;# 
   987  0E22                     	;# 
   988  0E24                     	;# 
   989  0E25                     	;# 
   990  0E28                     	;# 
   991  0E29                     	;# 
   992  0E2A                     	;# 
   993  0E2B                     	;# 
   994  0E90                     	;# 
   995  0E91                     	;# 
   996  0E92                     	;# 
   997  0E94                     	;# 
   998  0E95                     	;# 
   999  0E9C                     	;# 
  1000  0E9D                     	;# 
  1001  0E9E                     	;# 
  1002  0E9F                     	;# 
  1003  0EA0                     	;# 
  1004  0EA1                     	;# 
  1005  0EA2                     	;# 
  1006  0EA3                     	;# 
  1007  0EA4                     	;# 
  1008  0EA5                     	;# 
  1009  0EA6                     	;# 
  1010  0EA7                     	;# 
  1011  0F0F                     	;# 
  1012  0F10                     	;# 
  1013  0F11                     	;# 
  1014  0F12                     	;# 
  1015  0F13                     	;# 
  1016  0F14                     	;# 
  1017  0F15                     	;# 
  1018  0F16                     	;# 
  1019  0F17                     	;# 
  1020  0F18                     	;# 
  1021  0F19                     	;# 
  1022  0F1A                     	;# 
  1023  0F1B                     	;# 
  1024  0F1C                     	;# 
  1025  0F1D                     	;# 
  1026  0F1E                     	;# 
  1027  0F1F                     	;# 
  1028  0F20                     	;# 
  1029  0F21                     	;# 
  1030  0F22                     	;# 
  1031  0F23                     	;# 
  1032  0F24                     	;# 
  1033  0F25                     	;# 
  1034  0F26                     	;# 
  1035  0F27                     	;# 
  1036  0F28                     	;# 
  1037  0F29                     	;# 
  1038  0F2A                     	;# 
  1039  0F2B                     	;# 
  1040  0F2C                     	;# 
  1041  0F2D                     	;# 
  1042  0FE4                     	;# 
  1043  0FE5                     	;# 
  1044  0FE6                     	;# 
  1045  0FE7                     	;# 
  1046  0FE8                     	;# 
  1047  0FE9                     	;# 
  1048  0FEA                     	;# 
  1049  0FEB                     	;# 
  1050  0FED                     	;# 
  1051  0FEE                     	;# 
  1052  0FEF                     	;# 
  1053                           
  1054                           	psect	idataBANK0
  1055  056B                     __pidataBANK0:	
  1056                           
  1057                           ;initializer for main@F4388
  1058  056B  3448               	retlw	72
  1059  056C  3465               	retlw	101
  1060  056D  346C               	retlw	108
  1061  056E  346C               	retlw	108
  1062  056F  346F               	retlw	111
  1063  0570  3420               	retlw	32
  1064  0571  3477               	retlw	119
  1065  0572  346F               	retlw	111
  1066  0573  3472               	retlw	114
  1067  0574  346C               	retlw	108
  1068  0575  3464               	retlw	100
  1069  0576  3400               	retlw	0
  1070  0095                     _OPTION_REGbits	set	149
  1071  008E                     _TRISC	set	142
  1072  008D                     _TRISB	set	141
  1073  008C                     _TRISA	set	140
  1074  0097                     _WDTCON	set	151
  1075  0098                     _OSCTUNE	set	152
  1076  009A                     _OSCSTAT	set	154
  1077  0099                     _OSCCON	set	153
  1078  010E                     _LATC	set	270
  1079  010C                     _LATA	set	268
  1080  0116                     _BORCON	set	278
  1081  010D                     _LATB	set	269
  1082  010E                     _LATCbits	set	270
  1083  018C                     _ANSELA	set	396
  1084  018D                     _ANSELB	set	397
  1085  018E                     _ANSELC	set	398
  1086  020E                     _WPUC	set	526
  1087  020C                     _WPUA	set	524
  1088  020D                     _WPUB	set	525
  1089  028E                     _ODCONC	set	654
  1090  028D                     _ODCONB	set	653
  1091  028C                     _ODCONA	set	652
  1092  030E                     _SLRCONC	set	782
  1093  030D                     _SLRCONB	set	781
  1094  030C                     _SLRCONA	set	780
  1095  038E                     _INLVLC	set	910
  1096  038D                     _INLVLB	set	909
  1097  038C                     _INLVLA	set	908
  1098                           
  1099                           ; #config settings
  1100  0000                     
  1101                           	psect	cinit
  1102  07F2                     start_initialization:	
  1103  07F2                     __initialization:	
  1104                           
  1105                           ; Initialize objects allocated to BANK0
  1106  07F2  306B               	movlw	low __pidataBANK0
  1107  07F3  0084               	movwf	4
  1108  07F4  3085               	movlw	(high __pidataBANK0)| (0+128)
  1109  07F5  0085               	movwf	5
  1110  07F6  3030               	movlw	low __pdataBANK0
  1111  07F7  0086               	movwf	6
  1112  07F8  3000               	movlw	high __pdataBANK0
  1113  07F9  0087               	movwf	7
  1114  07FA  300C               	movlw	12
  1115  07FB  3185  2554         	fcall	init_ram
  1116  07FD                     end_of_initialization:	
  1117                           ;End of C runtime variable initialization code
  1118                           
  1119  07FD                     __end_of__initialization:	
  1120  07FD  0020               	movlb	0
  1121  07FE  3185  2DCF         	ljmp	_main	;jump to C main() function
  1122                           
  1123                           	psect	dataBANK0
  1124  0030                     __pdataBANK0:	
  1125  0030                     main@F4388:	
  1126  0030                     	ds	12
  1127                           
  1128                           	psect	inittext
  1129  0554                     init_ram:	
  1130  0554  00FE               	movwf	126
  1131  0555                     initloop:	
  1132  0555  0012               	moviw fsr0++
  1133  0556  001E               	movwi fsr1++
  1134  0557  0BFE               	decfsz	126,f
  1135  0558  2D55               	goto	initloop
  1136  0559  3400               	retlw	0
  1137                           
  1138                           	psect	cstackCOMMON
  1139  0070                     __pcstackCOMMON:	
  1140  0070                     ?_SYSTEM_Initialize:	
  1141  0070                     ??_SYSTEM_Initialize:	
  1142                           ; 1 bytes @ 0x0
  1143                           
  1144  0070                     ?_PIN_MANAGER_Initialize:	
  1145                           ; 1 bytes @ 0x0
  1146                           
  1147  0070                     ??_PIN_MANAGER_Initialize:	
  1148                           ; 1 bytes @ 0x0
  1149                           
  1150  0070                     ?_OSCILLATOR_Initialize:	
  1151                           ; 1 bytes @ 0x0
  1152                           
  1153  0070                     ??_OSCILLATOR_Initialize:	
  1154                           ; 1 bytes @ 0x0
  1155                           
  1156  0070                     ?_WDT_Initialize:	
  1157                           ; 1 bytes @ 0x0
  1158                           
  1159  0070                     ??_WDT_Initialize:	
  1160                           ; 1 bytes @ 0x0
  1161                           
  1162  0070                     ?_DELAY_milliseconds:	
  1163                           ; 1 bytes @ 0x0
  1164                           
  1165  0070                     ?_DELAY_microseconds:	
  1166                           ; 1 bytes @ 0x0
  1167                           
  1168  0070                     ?_main:	
  1169                           ; 1 bytes @ 0x0
  1170                           
  1171  0070                     DELAY_milliseconds@milliseconds:	
  1172                           ; 1 bytes @ 0x0
  1173                           
  1174  0070                     DELAY_microseconds@microseconds:	
  1175                           ; 2 bytes @ 0x0
  1176                           
  1177                           
  1178                           ; 2 bytes @ 0x0
  1179  0070                     	ds	2
  1180  0072                     ??_DELAY_milliseconds:	
  1181  0072                     ??_DELAY_microseconds:	
  1182                           ; 1 bytes @ 0x2
  1183                           
  1184                           
  1185                           ; 1 bytes @ 0x2
  1186  0072                     	ds	1
  1187  0073                     ??_main:	
  1188                           
  1189                           ; 1 bytes @ 0x3
  1190  0073                     	ds	3
  1191                           
  1192                           	psect	cstackBANK0
  1193  0020                     __pcstackBANK0:	
  1194  0020                     main@tempstr:	
  1195                           
  1196                           ; 12 bytes @ 0x0
  1197  0020                     	ds	12
  1198  002C                     main@stringsize:	
  1199                           
  1200                           ; 2 bytes @ 0xC
  1201  002C                     	ds	2
  1202  002E                     main@i:	
  1203                           
  1204                           ; 2 bytes @ 0xE
  1205  002E                     	ds	2
  1206                           
  1207                           	psect	maintext
  1208  05CF                     __pmaintext:	
  1209 ;;
  1210 ;;Main: autosize = 0, tempsize = 3, incstack = 0, save=0
  1211 ;;
  1212 ;; *************** function _main *****************
  1213 ;; Defined at:
  1214 ;;		line 52 in file "main.c"
  1215 ;; Parameters:    Size  Location     Type
  1216 ;;		None
  1217 ;; Auto vars:     Size  Location     Type
  1218 ;;  tempstr        12    0[BANK0 ] unsigned char [12]
  1219 ;;  i               2   14[BANK0 ] int 
  1220 ;;  stringsize      2   12[BANK0 ] int 
  1221 ;; Return value:  Size  Location     Type
  1222 ;;                  1    wreg      void 
  1223 ;; Registers used:
  1224 ;;		wreg, fsr0l, fsr0h, fsr1l, fsr1h, status,2, status,0, pclath, cstack
  1225 ;; Tracked objects:
  1226 ;;		On entry : B1F/0
  1227 ;;		On exit  : 0/0
  1228 ;;		Unchanged: 0/0
  1229 ;; Data sizes:     COMMON   BANK0   BANK1   BANK2   BANK3   BANK4   BANK5   BANK6
  1230 ;;      Params:         0       0       0       0       0       0       0       0
  1231 ;;      Locals:         0      16       0       0       0       0       0       0
  1232 ;;      Temps:          3       0       0       0       0       0       0       0
  1233 ;;      Totals:         3      16       0       0       0       0       0       0
  1234 ;;Total ram usage:       19 bytes
  1235 ;; Hardware stack levels required when called:    2
  1236 ;; This function calls:
  1237 ;;		_DELAY_microseconds
  1238 ;;		_DELAY_milliseconds
  1239 ;;		_SYSTEM_Initialize
  1240 ;; This function is called by:
  1241 ;;		Startup code after reset
  1242 ;; This function uses a non-reentrant model
  1243 ;;
  1244                           
  1245                           
  1246                           ;psect for function _main
  1247  05CF                     _main:	
  1248                           
  1249                           ;main.c: 54:     char tempstr[]= "Hello world";
  1250                           
  1251                           ;incstack = 0
  1252                           ; Regs used in _main: [wreg-fsr1h+status,2+status,0+pclath+cstack]
  1253  05CF  3030               	movlw	low main@F4388
  1254  05D0  0086               	movwf	6
  1255  05D1  3000               	movlw	high main@F4388
  1256  05D2  0087               	movwf	7
  1257  05D3  3020               	movlw	low main@tempstr
  1258  05D4  0084               	movwf	4
  1259  05D5  3000               	movlw	high main@tempstr
  1260  05D6  0085               	movwf	5
  1261  05D7  300C               	movlw	12
  1262  05D8  00F3               	movwf	??_main
  1263  05D9                     u100:	
  1264  05D9  0016               	moviw fsr1++
  1265  05DA  001A               	movwi fsr0++
  1266  05DB  0BF3               	decfsz	??_main,f
  1267  05DC  2DD9               	goto	u100
  1268                           
  1269                           ;main.c: 55:     int stringsize;;main.c: 56:     int i;;main.c: 59:     SYSTEM_Initializ
      +                          e();
  1270  05DD  3185  2562  3185   	fcall	_SYSTEM_Initialize
  1271                           
  1272                           ;main.c: 80:     DELAY_milliseconds(20);
  1273  05E0  3014               	movlw	20
  1274  05E1  00F0               	movwf	DELAY_milliseconds@milliseconds
  1275  05E2  3000               	movlw	0
  1276  05E3  00F1               	movwf	DELAY_milliseconds@milliseconds+1
  1277  05E4  3185  2577  3185   	fcall	_DELAY_milliseconds
  1278                           
  1279                           ;main.c: 86:     DELAY_microseconds(5);
  1280  05E7  3005               	movlw	5
  1281  05E8  00F0               	movwf	DELAY_microseconds@microseconds
  1282  05E9  3000               	movlw	0
  1283  05EA  00F1               	movwf	DELAY_microseconds@microseconds+1
  1284  05EB  3185  2589  3185   	fcall	_DELAY_microseconds
  1285                           
  1286                           ;main.c: 88:     LATCbits.LATC2 = 1;
  1287  05EE  0022               	movlb	2	; select bank2
  1288  05EF  150E               	bsf	14,2	;volatile
  1289                           
  1290                           ;main.c: 89:     DELAY_microseconds(5);
  1291  05F0  3005               	movlw	5
  1292  05F1  00F0               	movwf	DELAY_microseconds@microseconds
  1293  05F2  3000               	movlw	0
  1294  05F3  00F1               	movwf	DELAY_microseconds@microseconds+1
  1295  05F4  3185  2589  3185   	fcall	_DELAY_microseconds
  1296                           
  1297                           ;main.c: 93:     LATCbits.LATC1 = 0;
  1298  05F7  0022               	movlb	2	; select bank2
  1299  05F8  108E               	bcf	14,1	;volatile
  1300                           
  1301                           ;main.c: 96:     LATCbits.LATC0 = 0;
  1302  05F9  100E               	bcf	14,0	;volatile
  1303                           
  1304                           ;main.c: 101:     LATB = 0x30;
  1305  05FA  3030               	movlw	48
  1306  05FB  008D               	movwf	13	;volatile
  1307                           
  1308                           ;main.c: 105:     DELAY_microseconds(5);
  1309  05FC  3005               	movlw	5
  1310  05FD  00F0               	movwf	DELAY_microseconds@microseconds
  1311  05FE  3000               	movlw	0
  1312  05FF  00F1               	movwf	DELAY_microseconds@microseconds+1
  1313  0600  3185  2589  3185   	fcall	_DELAY_microseconds
  1314                           
  1315                           ;main.c: 107:     LATCbits.LATC2 = 0;
  1316  0603  0022               	movlb	2	; select bank2
  1317  0604  110E               	bcf	14,2	;volatile
  1318                           
  1319                           ;main.c: 108:     DELAY_microseconds(5);
  1320  0605  3005               	movlw	5
  1321  0606  00F0               	movwf	DELAY_microseconds@microseconds
  1322  0607  3000               	movlw	0
  1323  0608  00F1               	movwf	DELAY_microseconds@microseconds+1
  1324  0609  3185  2589  3185   	fcall	_DELAY_microseconds
  1325                           
  1326                           ;main.c: 109:     LATCbits.LATC2 = 1;
  1327  060C  0022               	movlb	2	; select bank2
  1328  060D  150E               	bsf	14,2	;volatile
  1329                           
  1330                           ;main.c: 110:     DELAY_microseconds(5);
  1331  060E  3005               	movlw	5
  1332  060F  00F0               	movwf	DELAY_microseconds@microseconds
  1333  0610  3000               	movlw	0
  1334  0611  00F1               	movwf	DELAY_microseconds@microseconds+1
  1335  0612  3185  2589  3185   	fcall	_DELAY_microseconds
  1336                           
  1337                           ;main.c: 112:     DELAY_milliseconds(20);
  1338  0615  3014               	movlw	20
  1339  0616  00F0               	movwf	DELAY_milliseconds@milliseconds
  1340  0617  3000               	movlw	0
  1341  0618  00F1               	movwf	DELAY_milliseconds@milliseconds+1
  1342  0619  3185  2577  3185   	fcall	_DELAY_milliseconds
  1343                           
  1344                           ;main.c: 117:     LATB = 0x30;
  1345  061C  3030               	movlw	48
  1346  061D  0022               	movlb	2	; select bank2
  1347  061E  008D               	movwf	13	;volatile
  1348                           
  1349                           ;main.c: 121:     DELAY_microseconds(5);
  1350  061F  3005               	movlw	5
  1351  0620  00F0               	movwf	DELAY_microseconds@microseconds
  1352  0621  3000               	movlw	0
  1353  0622  00F1               	movwf	DELAY_microseconds@microseconds+1
  1354  0623  3185  2589  3185   	fcall	_DELAY_microseconds
  1355                           
  1356                           ;main.c: 123:     LATCbits.LATC2 = 0;
  1357  0626  0022               	movlb	2	; select bank2
  1358  0627  110E               	bcf	14,2	;volatile
  1359                           
  1360                           ;main.c: 124:     DELAY_microseconds(5);
  1361  0628  3005               	movlw	5
  1362  0629  00F0               	movwf	DELAY_microseconds@microseconds
  1363  062A  3000               	movlw	0
  1364  062B  00F1               	movwf	DELAY_microseconds@microseconds+1
  1365  062C  3185  2589  3185   	fcall	_DELAY_microseconds
  1366                           
  1367                           ;main.c: 125:     LATCbits.LATC2 = 1;
  1368  062F  0022               	movlb	2	; select bank2
  1369  0630  150E               	bsf	14,2	;volatile
  1370                           
  1371                           ;main.c: 126:     DELAY_microseconds(5);
  1372  0631  3005               	movlw	5
  1373  0632  00F0               	movwf	DELAY_microseconds@microseconds
  1374  0633  3000               	movlw	0
  1375  0634  00F1               	movwf	DELAY_microseconds@microseconds+1
  1376  0635  3185  2589  3185   	fcall	_DELAY_microseconds
  1377                           
  1378                           ;main.c: 128:     DELAY_milliseconds(20);
  1379  0638  3014               	movlw	20
  1380  0639  00F0               	movwf	DELAY_milliseconds@milliseconds
  1381  063A  3000               	movlw	0
  1382  063B  00F1               	movwf	DELAY_milliseconds@milliseconds+1
  1383  063C  3185  2577  3185   	fcall	_DELAY_milliseconds
  1384                           
  1385                           ;main.c: 133:     LATB = 0x30;
  1386  063F  3030               	movlw	48
  1387  0640  0022               	movlb	2	; select bank2
  1388  0641  008D               	movwf	13	;volatile
  1389                           
  1390                           ;main.c: 137:     DELAY_microseconds(5);
  1391  0642  3005               	movlw	5
  1392  0643  00F0               	movwf	DELAY_microseconds@microseconds
  1393  0644  3000               	movlw	0
  1394  0645  00F1               	movwf	DELAY_microseconds@microseconds+1
  1395  0646  3185  2589  3185   	fcall	_DELAY_microseconds
  1396                           
  1397                           ;main.c: 139:     LATCbits.LATC2 = 0;
  1398  0649  0022               	movlb	2	; select bank2
  1399  064A  110E               	bcf	14,2	;volatile
  1400                           
  1401                           ;main.c: 140:     DELAY_microseconds(5);
  1402  064B  3005               	movlw	5
  1403  064C  00F0               	movwf	DELAY_microseconds@microseconds
  1404  064D  3000               	movlw	0
  1405  064E  00F1               	movwf	DELAY_microseconds@microseconds+1
  1406  064F  3185  2589  3185   	fcall	_DELAY_microseconds
  1407                           
  1408                           ;main.c: 141:     LATCbits.LATC2 = 1;
  1409  0652  0022               	movlb	2	; select bank2
  1410  0653  150E               	bsf	14,2	;volatile
  1411                           
  1412                           ;main.c: 142:     DELAY_microseconds(5);
  1413  0654  3005               	movlw	5
  1414  0655  00F0               	movwf	DELAY_microseconds@microseconds
  1415  0656  3000               	movlw	0
  1416  0657  00F1               	movwf	DELAY_microseconds@microseconds+1
  1417  0658  3185  2589  3185   	fcall	_DELAY_microseconds
  1418                           
  1419                           ;main.c: 144:     LATB = 0x20;
  1420  065B  3020               	movlw	32
  1421  065C  0022               	movlb	2	; select bank2
  1422  065D  008D               	movwf	13	;volatile
  1423                           
  1424                           ;main.c: 148:     DELAY_microseconds(5);
  1425  065E  3005               	movlw	5
  1426  065F  00F0               	movwf	DELAY_microseconds@microseconds
  1427  0660  3000               	movlw	0
  1428  0661  00F1               	movwf	DELAY_microseconds@microseconds+1
  1429  0662  3185  2589  3185   	fcall	_DELAY_microseconds
  1430                           
  1431                           ;main.c: 150:     LATCbits.LATC2 = 0;
  1432  0665  0022               	movlb	2	; select bank2
  1433  0666  110E               	bcf	14,2	;volatile
  1434                           
  1435                           ;main.c: 151:     DELAY_microseconds(5);
  1436  0667  3005               	movlw	5
  1437  0668  00F0               	movwf	DELAY_microseconds@microseconds
  1438  0669  3000               	movlw	0
  1439  066A  00F1               	movwf	DELAY_microseconds@microseconds+1
  1440  066B  3185  2589  3185   	fcall	_DELAY_microseconds
  1441                           
  1442                           ;main.c: 152:     LATCbits.LATC2 = 1;
  1443  066E  0022               	movlb	2	; select bank2
  1444  066F  150E               	bsf	14,2	;volatile
  1445                           
  1446                           ;main.c: 153:     DELAY_microseconds(5);
  1447  0670  3005               	movlw	5
  1448  0671  00F0               	movwf	DELAY_microseconds@microseconds
  1449  0672  3000               	movlw	0
  1450  0673  00F1               	movwf	DELAY_microseconds@microseconds+1
  1451  0674  3185  2589  3185   	fcall	_DELAY_microseconds
  1452                           
  1453                           ;main.c: 158:     LATB = 0x20;
  1454  0677  3020               	movlw	32
  1455  0678  0022               	movlb	2	; select bank2
  1456  0679  008D               	movwf	13	;volatile
  1457                           
  1458                           ;main.c: 162:     DELAY_microseconds(5);
  1459  067A  3005               	movlw	5
  1460  067B  00F0               	movwf	DELAY_microseconds@microseconds
  1461  067C  3000               	movlw	0
  1462  067D  00F1               	movwf	DELAY_microseconds@microseconds+1
  1463  067E  3185  2589  3185   	fcall	_DELAY_microseconds
  1464                           
  1465                           ;main.c: 164:     LATCbits.LATC2 = 0;
  1466  0681  0022               	movlb	2	; select bank2
  1467  0682  110E               	bcf	14,2	;volatile
  1468                           
  1469                           ;main.c: 165:     DELAY_microseconds(5);
  1470  0683  3005               	movlw	5
  1471  0684  00F0               	movwf	DELAY_microseconds@microseconds
  1472  0685  3000               	movlw	0
  1473  0686  00F1               	movwf	DELAY_microseconds@microseconds+1
  1474  0687  3185  2589  3185   	fcall	_DELAY_microseconds
  1475                           
  1476                           ;main.c: 166:     LATCbits.LATC2 = 1;
  1477  068A  0022               	movlb	2	; select bank2
  1478  068B  150E               	bsf	14,2	;volatile
  1479                           
  1480                           ;main.c: 167:     DELAY_microseconds(5);
  1481  068C  3005               	movlw	5
  1482  068D  00F0               	movwf	DELAY_microseconds@microseconds
  1483  068E  3000               	movlw	0
  1484  068F  00F1               	movwf	DELAY_microseconds@microseconds+1
  1485  0690  3185  2589  3185   	fcall	_DELAY_microseconds
  1486                           
  1487                           ;main.c: 169:      LATB = 0x80;
  1488  0693  3080               	movlw	128
  1489  0694  0022               	movlb	2	; select bank2
  1490  0695  008D               	movwf	13	;volatile
  1491                           
  1492                           ;main.c: 173:     DELAY_microseconds(5);
  1493  0696  3005               	movlw	5
  1494  0697  00F0               	movwf	DELAY_microseconds@microseconds
  1495  0698  3000               	movlw	0
  1496  0699  00F1               	movwf	DELAY_microseconds@microseconds+1
  1497  069A  3185  2589  3185   	fcall	_DELAY_microseconds
  1498                           
  1499                           ;main.c: 175:     LATCbits.LATC2 = 0;
  1500  069D  0022               	movlb	2	; select bank2
  1501  069E  110E               	bcf	14,2	;volatile
  1502                           
  1503                           ;main.c: 176:     DELAY_microseconds(5);
  1504  069F  3005               	movlw	5
  1505  06A0  00F0               	movwf	DELAY_microseconds@microseconds
  1506  06A1  3000               	movlw	0
  1507  06A2  00F1               	movwf	DELAY_microseconds@microseconds+1
  1508  06A3  3185  2589  3185   	fcall	_DELAY_microseconds
  1509                           
  1510                           ;main.c: 177:     LATCbits.LATC2 = 1;
  1511  06A6  0022               	movlb	2	; select bank2
  1512  06A7  150E               	bsf	14,2	;volatile
  1513                           
  1514                           ;main.c: 178:     DELAY_microseconds(5);
  1515  06A8  3005               	movlw	5
  1516  06A9  00F0               	movwf	DELAY_microseconds@microseconds
  1517  06AA  3000               	movlw	0
  1518  06AB  00F1               	movwf	DELAY_microseconds@microseconds+1
  1519  06AC  3185  2589  3185   	fcall	_DELAY_microseconds
  1520                           
  1521                           ;main.c: 180:     DELAY_milliseconds(10);
  1522  06AF  300A               	movlw	10
  1523  06B0  00F0               	movwf	DELAY_milliseconds@milliseconds
  1524  06B1  3000               	movlw	0
  1525  06B2  00F1               	movwf	DELAY_milliseconds@milliseconds+1
  1526  06B3  3185  2577  3185   	fcall	_DELAY_milliseconds
  1527                           
  1528                           ;main.c: 186:     LATB = 0x00;
  1529  06B6  0022               	movlb	2	; select bank2
  1530  06B7  018D               	clrf	13	;volatile
  1531                           
  1532                           ;main.c: 188:     DELAY_microseconds(5);
  1533  06B8  3005               	movlw	5
  1534  06B9  00F0               	movwf	DELAY_microseconds@microseconds
  1535  06BA  3000               	movlw	0
  1536  06BB  00F1               	movwf	DELAY_microseconds@microseconds+1
  1537  06BC  3185  2589  3185   	fcall	_DELAY_microseconds
  1538                           
  1539                           ;main.c: 189:     LATCbits.LATC2 = 0;
  1540  06BF  0022               	movlb	2	; select bank2
  1541  06C0  110E               	bcf	14,2	;volatile
  1542                           
  1543                           ;main.c: 190:     DELAY_microseconds(5);
  1544  06C1  3005               	movlw	5
  1545  06C2  00F0               	movwf	DELAY_microseconds@microseconds
  1546  06C3  3000               	movlw	0
  1547  06C4  00F1               	movwf	DELAY_microseconds@microseconds+1
  1548  06C5  3185  2589  3185   	fcall	_DELAY_microseconds
  1549                           
  1550                           ;main.c: 191:     LATCbits.LATC2 = 1;
  1551  06C8  0022               	movlb	2	; select bank2
  1552  06C9  150E               	bsf	14,2	;volatile
  1553                           
  1554                           ;main.c: 192:     DELAY_microseconds(5);
  1555  06CA  3005               	movlw	5
  1556  06CB  00F0               	movwf	DELAY_microseconds@microseconds
  1557  06CC  3000               	movlw	0
  1558  06CD  00F1               	movwf	DELAY_microseconds@microseconds+1
  1559  06CE  3185  2589  3185   	fcall	_DELAY_microseconds
  1560                           
  1561                           ;main.c: 194:     LATB = 0xC0;
  1562  06D1  30C0               	movlw	192
  1563  06D2  0022               	movlb	2	; select bank2
  1564  06D3  008D               	movwf	13	;volatile
  1565                           
  1566                           ;main.c: 196:     DELAY_microseconds(5);
  1567  06D4  3005               	movlw	5
  1568  06D5  00F0               	movwf	DELAY_microseconds@microseconds
  1569  06D6  3000               	movlw	0
  1570  06D7  00F1               	movwf	DELAY_microseconds@microseconds+1
  1571  06D8  3185  2589  3185   	fcall	_DELAY_microseconds
  1572                           
  1573                           ;main.c: 197:     LATCbits.LATC2 = 0;
  1574  06DB  0022               	movlb	2	; select bank2
  1575  06DC  110E               	bcf	14,2	;volatile
  1576                           
  1577                           ;main.c: 198:     DELAY_microseconds(5);
  1578  06DD  3005               	movlw	5
  1579  06DE  00F0               	movwf	DELAY_microseconds@microseconds
  1580  06DF  3000               	movlw	0
  1581  06E0  00F1               	movwf	DELAY_microseconds@microseconds+1
  1582  06E1  3185  2589  3185   	fcall	_DELAY_microseconds
  1583                           
  1584                           ;main.c: 199:     LATCbits.LATC2 = 1;
  1585  06E4  0022               	movlb	2	; select bank2
  1586  06E5  150E               	bsf	14,2	;volatile
  1587                           
  1588                           ;main.c: 200:     DELAY_microseconds(5);
  1589  06E6  3005               	movlw	5
  1590  06E7  00F0               	movwf	DELAY_microseconds@microseconds
  1591  06E8  3000               	movlw	0
  1592  06E9  00F1               	movwf	DELAY_microseconds@microseconds+1
  1593  06EA  3185  2589  3185   	fcall	_DELAY_microseconds
  1594                           
  1595                           ;main.c: 202:     DELAY_milliseconds(10);
  1596  06ED  300A               	movlw	10
  1597  06EE  00F0               	movwf	DELAY_milliseconds@milliseconds
  1598  06EF  3000               	movlw	0
  1599  06F0  00F1               	movwf	DELAY_milliseconds@milliseconds+1
  1600  06F1  3185  2577  3185   	fcall	_DELAY_milliseconds
  1601                           
  1602                           ;main.c: 207:     LATB = 0x00;
  1603  06F4  0022               	movlb	2	; select bank2
  1604  06F5  018D               	clrf	13	;volatile
  1605                           
  1606                           ;main.c: 209:     DELAY_microseconds(5);
  1607  06F6  3005               	movlw	5
  1608  06F7  00F0               	movwf	DELAY_microseconds@microseconds
  1609  06F8  3000               	movlw	0
  1610  06F9  00F1               	movwf	DELAY_microseconds@microseconds+1
  1611  06FA  3185  2589  3185   	fcall	_DELAY_microseconds
  1612                           
  1613                           ;main.c: 210:     LATCbits.LATC2 = 0;
  1614  06FD  0022               	movlb	2	; select bank2
  1615  06FE  110E               	bcf	14,2	;volatile
  1616                           
  1617                           ;main.c: 211:     DELAY_microseconds(5);
  1618  06FF  3005               	movlw	5
  1619  0700  00F0               	movwf	DELAY_microseconds@microseconds
  1620  0701  3000               	movlw	0
  1621  0702  00F1               	movwf	DELAY_microseconds@microseconds+1
  1622  0703  3185  2589  3185   	fcall	_DELAY_microseconds
  1623                           
  1624                           ;main.c: 212:     LATCbits.LATC2 = 1;
  1625  0706  0022               	movlb	2	; select bank2
  1626  0707  150E               	bsf	14,2	;volatile
  1627                           
  1628                           ;main.c: 213:     DELAY_microseconds(5);
  1629  0708  3005               	movlw	5
  1630  0709  00F0               	movwf	DELAY_microseconds@microseconds
  1631  070A  3000               	movlw	0
  1632  070B  00F1               	movwf	DELAY_microseconds@microseconds+1
  1633  070C  3185  2589  3185   	fcall	_DELAY_microseconds
  1634                           
  1635                           ;main.c: 215:     LATB = 0x10;
  1636  070F  3010               	movlw	16
  1637  0710  0022               	movlb	2	; select bank2
  1638  0711  008D               	movwf	13	;volatile
  1639                           
  1640                           ;main.c: 217:     DELAY_microseconds(5);
  1641  0712  3005               	movlw	5
  1642  0713  00F0               	movwf	DELAY_microseconds@microseconds
  1643  0714  3000               	movlw	0
  1644  0715  00F1               	movwf	DELAY_microseconds@microseconds+1
  1645  0716  3185  2589  3185   	fcall	_DELAY_microseconds
  1646                           
  1647                           ;main.c: 218:     LATCbits.LATC2 = 0;
  1648  0719  0022               	movlb	2	; select bank2
  1649  071A  110E               	bcf	14,2	;volatile
  1650                           
  1651                           ;main.c: 219:     DELAY_microseconds(5);
  1652  071B  3005               	movlw	5
  1653  071C  00F0               	movwf	DELAY_microseconds@microseconds
  1654  071D  3000               	movlw	0
  1655  071E  00F1               	movwf	DELAY_microseconds@microseconds+1
  1656  071F  3185  2589  3185   	fcall	_DELAY_microseconds
  1657                           
  1658                           ;main.c: 220:     LATCbits.LATC2 = 1;
  1659  0722  0022               	movlb	2	; select bank2
  1660  0723  150E               	bsf	14,2	;volatile
  1661                           
  1662                           ;main.c: 221:     DELAY_microseconds(5);
  1663  0724  3005               	movlw	5
  1664  0725  00F0               	movwf	DELAY_microseconds@microseconds
  1665  0726  3000               	movlw	0
  1666  0727  00F1               	movwf	DELAY_microseconds@microseconds+1
  1667  0728  3185  2589  3185   	fcall	_DELAY_microseconds
  1668                           
  1669                           ;main.c: 223:     DELAY_milliseconds(10);
  1670  072B  300A               	movlw	10
  1671  072C  00F0               	movwf	DELAY_milliseconds@milliseconds
  1672  072D  3000               	movlw	0
  1673  072E  00F1               	movwf	DELAY_milliseconds@milliseconds+1
  1674  072F  3185  2577  3185   	fcall	_DELAY_milliseconds
  1675                           
  1676                           ;main.c: 227:     LATB = 0x00;
  1677  0732  0022               	movlb	2	; select bank2
  1678  0733  018D               	clrf	13	;volatile
  1679                           
  1680                           ;main.c: 229:     DELAY_microseconds(5);
  1681  0734  3005               	movlw	5
  1682  0735  00F0               	movwf	DELAY_microseconds@microseconds
  1683  0736  3000               	movlw	0
  1684  0737  00F1               	movwf	DELAY_microseconds@microseconds+1
  1685  0738  3185  2589  3185   	fcall	_DELAY_microseconds
  1686                           
  1687                           ;main.c: 230:     LATCbits.LATC2 = 0;
  1688  073B  0022               	movlb	2	; select bank2
  1689  073C  110E               	bcf	14,2	;volatile
  1690                           
  1691                           ;main.c: 231:     DELAY_microseconds(5);
  1692  073D  3005               	movlw	5
  1693  073E  00F0               	movwf	DELAY_microseconds@microseconds
  1694  073F  3000               	movlw	0
  1695  0740  00F1               	movwf	DELAY_microseconds@microseconds+1
  1696  0741  3185  2589  3185   	fcall	_DELAY_microseconds
  1697                           
  1698                           ;main.c: 232:     LATCbits.LATC2 = 1;
  1699  0744  0022               	movlb	2	; select bank2
  1700  0745  150E               	bsf	14,2	;volatile
  1701                           
  1702                           ;main.c: 233:     DELAY_microseconds(5);
  1703  0746  3005               	movlw	5
  1704  0747  00F0               	movwf	DELAY_microseconds@microseconds
  1705  0748  3000               	movlw	0
  1706  0749  00F1               	movwf	DELAY_microseconds@microseconds+1
  1707  074A  3185  2589  3185   	fcall	_DELAY_microseconds
  1708                           
  1709                           ;main.c: 235:     LATB = 0x60;
  1710  074D  3060               	movlw	96
  1711  074E  0022               	movlb	2	; select bank2
  1712  074F  008D               	movwf	13	;volatile
  1713                           
  1714                           ;main.c: 239:     DELAY_microseconds(5);
  1715  0750  3005               	movlw	5
  1716  0751  00F0               	movwf	DELAY_microseconds@microseconds
  1717  0752  3000               	movlw	0
  1718  0753  00F1               	movwf	DELAY_microseconds@microseconds+1
  1719  0754  3185  2589  3185   	fcall	_DELAY_microseconds
  1720                           
  1721                           ;main.c: 240:     LATCbits.LATC2 = 0;
  1722  0757  0022               	movlb	2	; select bank2
  1723  0758  110E               	bcf	14,2	;volatile
  1724                           
  1725                           ;main.c: 241:     DELAY_microseconds(5);
  1726  0759  3005               	movlw	5
  1727  075A  00F0               	movwf	DELAY_microseconds@microseconds
  1728  075B  3000               	movlw	0
  1729  075C  00F1               	movwf	DELAY_microseconds@microseconds+1
  1730  075D  3185  2589  3185   	fcall	_DELAY_microseconds
  1731                           
  1732                           ;main.c: 242:     LATCbits.LATC2 = 1;
  1733  0760  0022               	movlb	2	; select bank2
  1734  0761  150E               	bsf	14,2	;volatile
  1735                           
  1736                           ;main.c: 243:     DELAY_microseconds(5);
  1737  0762  3005               	movlw	5
  1738  0763  00F0               	movwf	DELAY_microseconds@microseconds
  1739  0764  3000               	movlw	0
  1740  0765  00F1               	movwf	DELAY_microseconds@microseconds+1
  1741  0766  3185  2589  3185   	fcall	_DELAY_microseconds
  1742                           
  1743                           ;main.c: 245:     DELAY_milliseconds(10);
  1744  0769  300A               	movlw	10
  1745  076A  00F0               	movwf	DELAY_milliseconds@milliseconds
  1746  076B  3000               	movlw	0
  1747  076C  00F1               	movwf	DELAY_milliseconds@milliseconds+1
  1748  076D  3185  2577  3185   	fcall	_DELAY_milliseconds
  1749                           
  1750                           ;main.c: 250:     stringsize = sizeof(tempstr);
  1751  0770  300C               	movlw	12
  1752  0771  0020               	movlb	0	; select bank0
  1753  0772  00AC               	movwf	main@stringsize
  1754  0773  3000               	movlw	0
  1755  0774  00AD               	movwf	main@stringsize+1
  1756                           
  1757                           ;main.c: 252:     i=0;
  1758  0775  01AE               	clrf	main@i
  1759  0776  01AF               	clrf	main@i+1
  1760                           
  1761                           ;main.c: 256:     LATCbits.LATC0 = 1;
  1762  0777  0022               	movlb	2	; select bank2
  1763  0778  140E               	bsf	14,0	;volatile
  1764  0779                     l1157:	
  1765                           ;main.c: 262:     while (i < (stringsize-1))
  1766                           
  1767                           
  1768                           ;main.c: 262:     while (i < (stringsize-1))
  1769  0779  0020               	movlb	0	; select bank0
  1770  077A  082C               	movf	main@stringsize,w
  1771  077B  3EFF               	addlw	255
  1772  077C  00F3               	movwf	??_main
  1773  077D  30FF               	movlw	255
  1774  077E  3D2D               	addwfc	main@stringsize+1,w
  1775  077F  00F4               	movwf	??_main+1
  1776  0780  082F               	movf	main@i+1,w
  1777  0781  3A80               	xorlw	128
  1778  0782  00F5               	movwf	??_main+2
  1779  0783  0874               	movf	??_main+1,w
  1780  0784  3A80               	xorlw	128
  1781  0785  0275               	subwf	??_main+2,w
  1782  0786  1D03               	skipz
  1783  0787  2F8A               	goto	u125
  1784  0788  0873               	movf	??_main,w
  1785  0789  022E               	subwf	main@i,w
  1786  078A                     u125:	
  1787  078A  1803               	btfsc	3,0
  1788  078B  2FF0               	goto	l39
  1789                           
  1790                           ;main.c: 263:     {;main.c: 265:         LATB = tempstr[i];
  1791  078C  0020               	movlb	0	; select bank0
  1792  078D  082E               	movf	main@i,w
  1793  078E  3E20               	addlw	(low (main@tempstr| 0))& (0+255)
  1794  078F  0086               	movwf	6
  1795  0790  0187               	clrf	7
  1796  0791  0801               	movf	1,w
  1797  0792  0022               	movlb	2	; select bank2
  1798  0793  008D               	movwf	13	;volatile
  1799                           
  1800                           ;main.c: 266:         DELAY_microseconds(5);
  1801  0794  3005               	movlw	5
  1802  0795  00F0               	movwf	DELAY_microseconds@microseconds
  1803  0796  3000               	movlw	0
  1804  0797  00F1               	movwf	DELAY_microseconds@microseconds+1
  1805  0798  3185  2589  3185   	fcall	_DELAY_microseconds
  1806                           
  1807                           ;main.c: 267:         LATCbits.LATC2 = 0;
  1808  079B  0022               	movlb	2	; select bank2
  1809  079C  110E               	bcf	14,2	;volatile
  1810                           
  1811                           ;main.c: 268:         DELAY_microseconds(5);
  1812  079D  3005               	movlw	5
  1813  079E  00F0               	movwf	DELAY_microseconds@microseconds
  1814  079F  3000               	movlw	0
  1815  07A0  00F1               	movwf	DELAY_microseconds@microseconds+1
  1816  07A1  3185  2589  3185   	fcall	_DELAY_microseconds
  1817                           
  1818                           ;main.c: 269:         LATCbits.LATC2 = 1;
  1819  07A4  0022               	movlb	2	; select bank2
  1820  07A5  150E               	bsf	14,2	;volatile
  1821                           
  1822                           ;main.c: 270:         DELAY_microseconds(5);
  1823  07A6  3005               	movlw	5
  1824  07A7  00F0               	movwf	DELAY_microseconds@microseconds
  1825  07A8  3000               	movlw	0
  1826  07A9  00F1               	movwf	DELAY_microseconds@microseconds+1
  1827  07AA  3185  2589  3185   	fcall	_DELAY_microseconds
  1828                           
  1829                           ;main.c: 274:         tempstr[i] = tempstr[i]<<4;
  1830  07AD  0020               	movlb	0	; select bank0
  1831  07AE  082E               	movf	main@i,w
  1832  07AF  3E20               	addlw	(low (main@tempstr| 0))& (0+255)
  1833  07B0  0086               	movwf	6
  1834  07B1  0187               	clrf	7
  1835  07B2  0801               	movf	1,w
  1836  07B3  00F3               	movwf	??_main
  1837  07B4  3003               	movlw	3
  1838  07B5                     u115:	
  1839  07B5  35F3               	lslf	??_main,f
  1840  07B6  3EFF               	addlw	-1
  1841  07B7  1D03               	skipz
  1842  07B8  2FB5               	goto	u115
  1843  07B9  3573               	lslf	??_main,w
  1844  07BA  00F4               	movwf	??_main+1
  1845  07BB  082E               	movf	main@i,w
  1846  07BC  3E20               	addlw	(low (main@tempstr| 0))& (0+255)
  1847  07BD  0086               	movwf	6
  1848  07BE  0187               	clrf	7
  1849  07BF  0874               	movf	??_main+1,w
  1850  07C0  0081               	movwf	1
  1851                           
  1852                           ;main.c: 277:         LATB = tempstr[i];
  1853  07C1  082E               	movf	main@i,w
  1854  07C2  3E20               	addlw	(low (main@tempstr| 0))& (0+255)
  1855  07C3  0086               	movwf	6
  1856  07C4  0187               	clrf	7
  1857  07C5  0801               	movf	1,w
  1858  07C6  0022               	movlb	2	; select bank2
  1859  07C7  008D               	movwf	13	;volatile
  1860                           
  1861                           ;main.c: 278:         DELAY_microseconds(5);
  1862  07C8  3005               	movlw	5
  1863  07C9  00F0               	movwf	DELAY_microseconds@microseconds
  1864  07CA  3000               	movlw	0
  1865  07CB  00F1               	movwf	DELAY_microseconds@microseconds+1
  1866  07CC  3185  2589  3185   	fcall	_DELAY_microseconds
  1867                           
  1868                           ;main.c: 279:         LATCbits.LATC2 = 0;
  1869  07CF  0022               	movlb	2	; select bank2
  1870  07D0  110E               	bcf	14,2	;volatile
  1871                           
  1872                           ;main.c: 280:         DELAY_microseconds(5);
  1873  07D1  3005               	movlw	5
  1874  07D2  00F0               	movwf	DELAY_microseconds@microseconds
  1875  07D3  3000               	movlw	0
  1876  07D4  00F1               	movwf	DELAY_microseconds@microseconds+1
  1877  07D5  3185  2589  3185   	fcall	_DELAY_microseconds
  1878                           
  1879                           ;main.c: 281:         LATCbits.LATC2 = 1 ;
  1880  07D8  0022               	movlb	2	; select bank2
  1881  07D9  150E               	bsf	14,2	;volatile
  1882                           
  1883                           ;main.c: 282:         DELAY_microseconds(5);
  1884  07DA  3005               	movlw	5
  1885  07DB  00F0               	movwf	DELAY_microseconds@microseconds
  1886  07DC  3000               	movlw	0
  1887  07DD  00F1               	movwf	DELAY_microseconds@microseconds+1
  1888  07DE  3185  2589  3185   	fcall	_DELAY_microseconds
  1889                           
  1890                           ;main.c: 284:         DELAY_microseconds(100);
  1891  07E1  3064               	movlw	100
  1892  07E2  00F0               	movwf	DELAY_microseconds@microseconds
  1893  07E3  3000               	movlw	0
  1894  07E4  00F1               	movwf	DELAY_microseconds@microseconds+1
  1895  07E5  3185  2589  3185   	fcall	_DELAY_microseconds
  1896                           
  1897                           ;main.c: 286:         i=i+1;
  1898  07E8  0020               	movlb	0	; select bank0
  1899  07E9  082E               	movf	main@i,w
  1900  07EA  3E01               	addlw	1
  1901  07EB  00AE               	movwf	main@i
  1902  07EC  3000               	movlw	0
  1903  07ED  3D2F               	addwfc	main@i+1,w
  1904  07EE  00AF               	movwf	main@i+1
  1905  07EF  2F79               	goto	l1157
  1906  07F0                     l39:	
  1907                           ;main.c: 291:     while (1)
  1908                           
  1909                           
  1910                           ;main.c: 292:     {;main.c: 295:      __nop();
  1911  07F0  0000               	nop
  1912  07F1  2FF0               	goto	l39
  1913  07F2                     __end_of_main:	
  1914                           
  1915                           	psect	text1
  1916  0562                     __ptext1:	
  1917 ;; *************** function _SYSTEM_Initialize *****************
  1918 ;; Defined at:
  1919 ;;		line 50 in file "mcc_generated_files/mcc.c"
  1920 ;; Parameters:    Size  Location     Type
  1921 ;;		None
  1922 ;; Auto vars:     Size  Location     Type
  1923 ;;		None
  1924 ;; Return value:  Size  Location     Type
  1925 ;;                  1    wreg      void 
  1926 ;; Registers used:
  1927 ;;		wreg, status,2, status,0, pclath, cstack
  1928 ;; Tracked objects:
  1929 ;;		On entry : 0/0
  1930 ;;		On exit  : 0/0
  1931 ;;		Unchanged: 0/0
  1932 ;; Data sizes:     COMMON   BANK0   BANK1   BANK2   BANK3   BANK4   BANK5   BANK6
  1933 ;;      Params:         0       0       0       0       0       0       0       0
  1934 ;;      Locals:         0       0       0       0       0       0       0       0
  1935 ;;      Temps:          0       0       0       0       0       0       0       0
  1936 ;;      Totals:         0       0       0       0       0       0       0       0
  1937 ;;Total ram usage:        0 bytes
  1938 ;; Hardware stack levels used:    1
  1939 ;; Hardware stack levels required when called:    1
  1940 ;; This function calls:
  1941 ;;		_OSCILLATOR_Initialize
  1942 ;;		_PIN_MANAGER_Initialize
  1943 ;;		_WDT_Initialize
  1944 ;; This function is called by:
  1945 ;;		_main
  1946 ;; This function uses a non-reentrant model
  1947 ;;
  1948                           
  1949                           
  1950                           ;psect for function _SYSTEM_Initialize
  1951  0562                     _SYSTEM_Initialize:	
  1952                           
  1953                           ;mcc_generated_files/mcc.c: 53:     PIN_MANAGER_Initialize();
  1954                           
  1955                           ;incstack = 0
  1956                           ; Regs used in _SYSTEM_Initialize: [wreg+status,2+status,0+pclath+cstack]
  1957  0562  3185  25A6  3185   	fcall	_PIN_MANAGER_Initialize
  1958                           
  1959                           ;mcc_generated_files/mcc.c: 54:     OSCILLATOR_Initialize();
  1960  0565  3185  255A  3185   	fcall	_OSCILLATOR_Initialize
  1961                           
  1962                           ;mcc_generated_files/mcc.c: 55:     WDT_Initialize();
  1963  0568  3185  2550         	fcall	_WDT_Initialize
  1964  056A  0008               	return
  1965  056B                     __end_of_SYSTEM_Initialize:	
  1966                           
  1967                           	psect	text2
  1968  0550                     __ptext2:	
  1969 ;; *************** function _WDT_Initialize *****************
  1970 ;; Defined at:
  1971 ;;		line 70 in file "mcc_generated_files/mcc.c"
  1972 ;; Parameters:    Size  Location     Type
  1973 ;;		None
  1974 ;; Auto vars:     Size  Location     Type
  1975 ;;		None
  1976 ;; Return value:  Size  Location     Type
  1977 ;;                  1    wreg      void 
  1978 ;; Registers used:
  1979 ;;		wreg
  1980 ;; Tracked objects:
  1981 ;;		On entry : 0/0
  1982 ;;		On exit  : 0/0
  1983 ;;		Unchanged: 0/0
  1984 ;; Data sizes:     COMMON   BANK0   BANK1   BANK2   BANK3   BANK4   BANK5   BANK6
  1985 ;;      Params:         0       0       0       0       0       0       0       0
  1986 ;;      Locals:         0       0       0       0       0       0       0       0
  1987 ;;      Temps:          0       0       0       0       0       0       0       0
  1988 ;;      Totals:         0       0       0       0       0       0       0       0
  1989 ;;Total ram usage:        0 bytes
  1990 ;; Hardware stack levels used:    1
  1991 ;; This function calls:
  1992 ;;		Nothing
  1993 ;; This function is called by:
  1994 ;;		_SYSTEM_Initialize
  1995 ;; This function uses a non-reentrant model
  1996 ;;
  1997                           
  1998                           
  1999                           ;psect for function _WDT_Initialize
  2000  0550                     _WDT_Initialize:	
  2001                           
  2002                           ;mcc_generated_files/mcc.c: 73:     WDTCON = 0x16;
  2003                           
  2004                           ;incstack = 0
  2005                           ; Regs used in _WDT_Initialize: [wreg]
  2006  0550  3016               	movlw	22
  2007  0551  0021               	movlb	1	; select bank1
  2008  0552  0097               	movwf	23	;volatile
  2009  0553  0008               	return
  2010  0554                     __end_of_WDT_Initialize:	
  2011                           
  2012                           	psect	text3
  2013  05A6                     __ptext3:	
  2014 ;; *************** function _PIN_MANAGER_Initialize *****************
  2015 ;; Defined at:
  2016 ;;		line 55 in file "mcc_generated_files/pin_manager.c"
  2017 ;; Parameters:    Size  Location     Type
  2018 ;;		None
  2019 ;; Auto vars:     Size  Location     Type
  2020 ;;		None
  2021 ;; Return value:  Size  Location     Type
  2022 ;;                  1    wreg      void 
  2023 ;; Registers used:
  2024 ;;		wreg, status,2
  2025 ;; Tracked objects:
  2026 ;;		On entry : 0/0
  2027 ;;		On exit  : 0/0
  2028 ;;		Unchanged: 0/0
  2029 ;; Data sizes:     COMMON   BANK0   BANK1   BANK2   BANK3   BANK4   BANK5   BANK6
  2030 ;;      Params:         0       0       0       0       0       0       0       0
  2031 ;;      Locals:         0       0       0       0       0       0       0       0
  2032 ;;      Temps:          0       0       0       0       0       0       0       0
  2033 ;;      Totals:         0       0       0       0       0       0       0       0
  2034 ;;Total ram usage:        0 bytes
  2035 ;; Hardware stack levels used:    1
  2036 ;; This function calls:
  2037 ;;		Nothing
  2038 ;; This function is called by:
  2039 ;;		_SYSTEM_Initialize
  2040 ;; This function uses a non-reentrant model
  2041 ;;
  2042                           
  2043                           
  2044                           ;psect for function _PIN_MANAGER_Initialize
  2045  05A6                     _PIN_MANAGER_Initialize:	
  2046                           
  2047                           ;mcc_generated_files/pin_manager.c: 60:     LATA = 0x00;
  2048                           
  2049                           ;incstack = 0
  2050                           ; Regs used in _PIN_MANAGER_Initialize: [wreg+status,2]
  2051  05A6  0022               	movlb	2	; select bank2
  2052  05A7  018C               	clrf	12	;volatile
  2053                           
  2054                           ;mcc_generated_files/pin_manager.c: 61:     LATB = 0x00;
  2055  05A8  018D               	clrf	13	;volatile
  2056                           
  2057                           ;mcc_generated_files/pin_manager.c: 62:     LATC = 0x00;
  2058  05A9  018E               	clrf	14	;volatile
  2059                           
  2060                           ;mcc_generated_files/pin_manager.c: 67:     TRISA = 0x37;
  2061  05AA  3037               	movlw	55
  2062  05AB  0021               	movlb	1	; select bank1
  2063  05AC  008C               	movwf	12	;volatile
  2064                           
  2065                           ;mcc_generated_files/pin_manager.c: 68:     TRISB = 0x00;
  2066  05AD  018D               	clrf	13	;volatile
  2067                           
  2068                           ;mcc_generated_files/pin_manager.c: 69:     TRISC = 0xF8;
  2069  05AE  30F8               	movlw	248
  2070  05AF  008E               	movwf	14	;volatile
  2071                           
  2072                           ;mcc_generated_files/pin_manager.c: 74:     ANSELC = 0x48;
  2073  05B0  3048               	movlw	72
  2074  05B1  0023               	movlb	3	; select bank3
  2075  05B2  008E               	movwf	14	;volatile
  2076                           
  2077                           ;mcc_generated_files/pin_manager.c: 75:     ANSELB = 0x00;
  2078  05B3  018D               	clrf	13	;volatile
  2079                           
  2080                           ;mcc_generated_files/pin_manager.c: 76:     ANSELA = 0x17;
  2081  05B4  3017               	movlw	23
  2082  05B5  008C               	movwf	12	;volatile
  2083                           
  2084                           ;mcc_generated_files/pin_manager.c: 81:     WPUB = 0x00;
  2085  05B6  0024               	movlb	4	; select bank4
  2086  05B7  018D               	clrf	13	;volatile
  2087                           
  2088                           ;mcc_generated_files/pin_manager.c: 82:     WPUA = 0x00;
  2089  05B8  018C               	clrf	12	;volatile
  2090                           
  2091                           ;mcc_generated_files/pin_manager.c: 83:     WPUC = 0x00;
  2092  05B9  018E               	clrf	14	;volatile
  2093                           
  2094                           ;mcc_generated_files/pin_manager.c: 84:     OPTION_REGbits.nWPUEN = 1;
  2095  05BA  0021               	movlb	1	; select bank1
  2096  05BB  1795               	bsf	21,7	;volatile
  2097                           
  2098                           ;mcc_generated_files/pin_manager.c: 89:     ODCONA = 0x00;
  2099  05BC  0025               	movlb	5	; select bank5
  2100  05BD  018C               	clrf	12	;volatile
  2101                           
  2102                           ;mcc_generated_files/pin_manager.c: 90:     ODCONB = 0x00;
  2103  05BE  018D               	clrf	13	;volatile
  2104                           
  2105                           ;mcc_generated_files/pin_manager.c: 91:     ODCONC = 0x00;
  2106  05BF  018E               	clrf	14	;volatile
  2107                           
  2108                           ;mcc_generated_files/pin_manager.c: 96:     SLRCONA = 0x37;
  2109  05C0  3037               	movlw	55
  2110  05C1  0026               	movlb	6	; select bank6
  2111  05C2  008C               	movwf	12	;volatile
  2112                           
  2113                           ;mcc_generated_files/pin_manager.c: 97:     SLRCONB = 0xF0;
  2114  05C3  30F0               	movlw	240
  2115  05C4  008D               	movwf	13	;volatile
  2116                           
  2117                           ;mcc_generated_files/pin_manager.c: 98:     SLRCONC = 0xFF;
  2118  05C5  30FF               	movlw	255
  2119  05C6  008E               	movwf	14	;volatile
  2120                           
  2121                           ;mcc_generated_files/pin_manager.c: 103:     INLVLA = 0x3F;
  2122  05C7  303F               	movlw	63
  2123  05C8  0027               	movlb	7	; select bank7
  2124  05C9  008C               	movwf	12	;volatile
  2125                           
  2126                           ;mcc_generated_files/pin_manager.c: 104:     INLVLB = 0xF0;
  2127  05CA  30F0               	movlw	240
  2128  05CB  008D               	movwf	13	;volatile
  2129                           
  2130                           ;mcc_generated_files/pin_manager.c: 105:     INLVLC = 0xFF;
  2131  05CC  30FF               	movlw	255
  2132  05CD  008E               	movwf	14	;volatile
  2133  05CE  0008               	return
  2134  05CF                     __end_of_PIN_MANAGER_Initialize:	
  2135                           
  2136                           	psect	text4
  2137  055A                     __ptext4:	
  2138 ;; *************** function _OSCILLATOR_Initialize *****************
  2139 ;; Defined at:
  2140 ;;		line 58 in file "mcc_generated_files/mcc.c"
  2141 ;; Parameters:    Size  Location     Type
  2142 ;;		None
  2143 ;; Auto vars:     Size  Location     Type
  2144 ;;		None
  2145 ;; Return value:  Size  Location     Type
  2146 ;;                  1    wreg      void 
  2147 ;; Registers used:
  2148 ;;		wreg, status,2
  2149 ;; Tracked objects:
  2150 ;;		On entry : 0/0
  2151 ;;		On exit  : 0/0
  2152 ;;		Unchanged: 0/0
  2153 ;; Data sizes:     COMMON   BANK0   BANK1   BANK2   BANK3   BANK4   BANK5   BANK6
  2154 ;;      Params:         0       0       0       0       0       0       0       0
  2155 ;;      Locals:         0       0       0       0       0       0       0       0
  2156 ;;      Temps:          0       0       0       0       0       0       0       0
  2157 ;;      Totals:         0       0       0       0       0       0       0       0
  2158 ;;Total ram usage:        0 bytes
  2159 ;; Hardware stack levels used:    1
  2160 ;; This function calls:
  2161 ;;		Nothing
  2162 ;; This function is called by:
  2163 ;;		_SYSTEM_Initialize
  2164 ;; This function uses a non-reentrant model
  2165 ;;
  2166                           
  2167                           
  2168                           ;psect for function _OSCILLATOR_Initialize
  2169  055A                     _OSCILLATOR_Initialize:	
  2170                           
  2171                           ;mcc_generated_files/mcc.c: 61:     OSCCON = 0x7A;
  2172                           
  2173                           ;incstack = 0
  2174                           ; Regs used in _OSCILLATOR_Initialize: [wreg+status,2]
  2175  055A  307A               	movlw	122
  2176  055B  0021               	movlb	1	; select bank1
  2177  055C  0099               	movwf	25	;volatile
  2178                           
  2179                           ;mcc_generated_files/mcc.c: 63:     OSCSTAT = 0x00;
  2180  055D  019A               	clrf	26	;volatile
  2181                           
  2182                           ;mcc_generated_files/mcc.c: 65:     OSCTUNE = 0x00;
  2183  055E  0198               	clrf	24	;volatile
  2184                           
  2185                           ;mcc_generated_files/mcc.c: 67:     BORCON = 0x00;
  2186  055F  0022               	movlb	2	; select bank2
  2187  0560  0196               	clrf	22	;volatile
  2188  0561  0008               	return
  2189  0562                     __end_of_OSCILLATOR_Initialize:	
  2190                           
  2191                           	psect	text5
  2192  0577                     __ptext5:	
  2193 ;; *************** function _DELAY_milliseconds *****************
  2194 ;; Defined at:
  2195 ;;		line 27 in file "mcc_generated_files/delay.c"
  2196 ;; Parameters:    Size  Location     Type
  2197 ;;  milliseconds    2    0[COMMON] unsigned short 
  2198 ;; Auto vars:     Size  Location     Type
  2199 ;;		None
  2200 ;; Return value:  Size  Location     Type
  2201 ;;                  1    wreg      void 
  2202 ;; Registers used:
  2203 ;;		wreg, status,2, status,0
  2204 ;; Tracked objects:
  2205 ;;		On entry : 0/0
  2206 ;;		On exit  : 0/0
  2207 ;;		Unchanged: 0/0
  2208 ;; Data sizes:     COMMON   BANK0   BANK1   BANK2   BANK3   BANK4   BANK5   BANK6
  2209 ;;      Params:         2       0       0       0       0       0       0       0
  2210 ;;      Locals:         0       0       0       0       0       0       0       0
  2211 ;;      Temps:          1       0       0       0       0       0       0       0
  2212 ;;      Totals:         3       0       0       0       0       0       0       0
  2213 ;;Total ram usage:        3 bytes
  2214 ;; Hardware stack levels used:    1
  2215 ;; This function calls:
  2216 ;;		Nothing
  2217 ;; This function is called by:
  2218 ;;		_main
  2219 ;; This function uses a non-reentrant model
  2220 ;;
  2221                           
  2222                           
  2223                           ;psect for function _DELAY_milliseconds
  2224  0577                     _DELAY_milliseconds:	
  2225  0577                     l939:	
  2226                           ;mcc_generated_files/delay.c: 28:     while(milliseconds--){
  2227                           
  2228                           ;incstack = 0
  2229                           ; Regs used in _DELAY_milliseconds: [wreg+status,2+status,0]
  2230                           
  2231                           
  2232                           ;mcc_generated_files/delay.c: 28:     while(milliseconds--){
  2233  0577  3001               	movlw	1
  2234  0578  02F0               	subwf	DELAY_milliseconds@milliseconds,f
  2235  0579  3000               	movlw	0
  2236  057A  3BF1               	subwfb	DELAY_milliseconds@milliseconds+1,f
  2237  057B  0A70               	incf	DELAY_milliseconds@milliseconds,w
  2238  057C  1903               	btfsc	3,2
  2239  057D  0A71               	incf	DELAY_milliseconds@milliseconds+1,w
  2240  057E  1903               	btfsc	3,2
  2241  057F  0008               	return
  2242                           
  2243                           ;mcc_generated_files/delay.c: 29:         _delay((unsigned long)((1)*(16000000/4000.0)))
      +                          ;
  2244  0580  3006               	movlw	6
  2245  0581  00F2               	movwf	??_DELAY_milliseconds
  2246  0582  3030               	movlw	48
  2247  0583                     u137:	
  2248  0583  0B89               	decfsz	9,f
  2249  0584  2D83               	goto	u137
  2250  0585  0BF2               	decfsz	??_DELAY_milliseconds,f
  2251  0586  2D83               	goto	u137
  2252  0587  3200               	nop2
  2253  0588  2D77               	goto	l939
  2254  0589                     __end_of_DELAY_milliseconds:	
  2255                           
  2256                           	psect	text6
  2257  0589                     __ptext6:	
  2258 ;; *************** function _DELAY_microseconds *****************
  2259 ;; Defined at:
  2260 ;;		line 33 in file "mcc_generated_files/delay.c"
  2261 ;; Parameters:    Size  Location     Type
  2262 ;;  microseconds    2    0[COMMON] unsigned short 
  2263 ;; Auto vars:     Size  Location     Type
  2264 ;;		None
  2265 ;; Return value:  Size  Location     Type
  2266 ;;                  1    wreg      void 
  2267 ;; Registers used:
  2268 ;;		wreg, status,2, status,0
  2269 ;; Tracked objects:
  2270 ;;		On entry : 0/0
  2271 ;;		On exit  : 0/0
  2272 ;;		Unchanged: 0/0
  2273 ;; Data sizes:     COMMON   BANK0   BANK1   BANK2   BANK3   BANK4   BANK5   BANK6
  2274 ;;      Params:         2       0       0       0       0       0       0       0
  2275 ;;      Locals:         0       0       0       0       0       0       0       0
  2276 ;;      Temps:          0       0       0       0       0       0       0       0
  2277 ;;      Totals:         2       0       0       0       0       0       0       0
  2278 ;;Total ram usage:        2 bytes
  2279 ;; Hardware stack levels used:    1
  2280 ;; This function calls:
  2281 ;;		Nothing
  2282 ;; This function is called by:
  2283 ;;		_main
  2284 ;; This function uses a non-reentrant model
  2285 ;;
  2286                           
  2287                           
  2288                           ;psect for function _DELAY_microseconds
  2289  0589                     _DELAY_microseconds:	
  2290  0589                     l11:	
  2291                           ;mcc_generated_files/delay.c: 38:     }
  2292                           
  2293                           ;mcc_generated_files/delay.c: 34:     while( microseconds >= 32)
  2294                           
  2295                           ;incstack = 0
  2296                           ; Regs used in _DELAY_microseconds: [wreg+status,2+status,0]
  2297                           
  2298                           
  2299                           ;mcc_generated_files/delay.c: 34:     while( microseconds >= 32)
  2300  0589  3000               	movlw	0
  2301  058A  0271               	subwf	DELAY_microseconds@microseconds+1,w
  2302  058B  3020               	movlw	32
  2303  058C  1903               	skipnz
  2304  058D  0270               	subwf	DELAY_microseconds@microseconds,w
  2305  058E  1C03               	btfss	3,0
  2306  058F  2D9B               	goto	l945
  2307                           
  2308                           ;mcc_generated_files/delay.c: 35:     {;mcc_generated_files/delay.c: 36:         _delay(
      +                          (unsigned long)((32)*(16000000/4000000.0)));
  2309  0590  302A               	movlw	42
  2310  0591                     u147:	
  2311  0591  0B89               	decfsz	9,f
  2312  0592  2D91               	goto	u147
  2313  0593  3200               	nop2
  2314                           
  2315                           ;mcc_generated_files/delay.c: 37:         microseconds -= 32;
  2316  0594  3020               	movlw	32
  2317  0595  02F0               	subwf	DELAY_microseconds@microseconds,f
  2318  0596  3000               	movlw	0
  2319  0597  3BF1               	subwfb	DELAY_microseconds@microseconds+1,f
  2320  0598  2D89               	goto	l11
  2321  0599                     l15:	
  2322                           
  2323                           ;mcc_generated_files/delay.c: 41:     {;mcc_generated_files/delay.c: 42:         _delay(
      +                          (unsigned long)((1)*(16000000/4000000.0)));
  2324  0599  3200               	nop2	;2 cycle nop
  2325  059A  3200               	nop2	;2 cycle nop
  2326  059B                     l945:	
  2327                           
  2328                           ;mcc_generated_files/delay.c: 40:     while(microseconds--)
  2329  059B  3001               	movlw	1
  2330  059C  02F0               	subwf	DELAY_microseconds@microseconds,f
  2331  059D  3000               	movlw	0
  2332  059E  3BF1               	subwfb	DELAY_microseconds@microseconds+1,f
  2333  059F  0A70               	incf	DELAY_microseconds@microseconds,w
  2334  05A0  1D03               	skipz
  2335  05A1  2D99               	goto	l15
  2336  05A2  0A71               	incf	DELAY_microseconds@microseconds+1,w
  2337  05A3  1903               	btfsc	3,2
  2338  05A4  0008               	return
  2339  05A5  2D99               	goto	l15
  2340  05A6                     __end_of_DELAY_microseconds:	
  2341  007E                     btemp	set	126	;btemp
  2342  007E                     wtemp0	set	126


Data Sizes:
    Strings     0
    Constant    0
    Data        12
    BSS         0
    Persistent  32
    Stack       0

Auto Spaces:
    Space          Size  Autos    Used
    COMMON           14      6       6
    BANK0            80     16      28
    BANK1            80      0       0
    BANK2            80      0       0
    BANK3            80      0       0
    BANK4            80      0       0
    BANK5            80      0       0
    BANK6            16      0       0

Pointer List with Targets:

    None.

Critical Paths under _main in COMMON

    _main->_DELAY_milliseconds

Critical Paths under _main in BANK0

    None.

Critical Paths under _main in BANK1

    None.

Critical Paths under _main in BANK2

    None.

Critical Paths under _main in BANK3

    None.

Critical Paths under _main in BANK4

    None.

Critical Paths under _main in BANK5

    None.

Critical Paths under _main in BANK6

    None.

Call Graph Tables:

 ---------------------------------------------------------------------------------
 (Depth) Function   	        Calls       Base Space   Used Autos Params    Refs
 ---------------------------------------------------------------------------------
 (0) _main                                                19    19      0    4270
                                              3 COMMON     3     3      0
                                              0 BANK0     16    16      0
                 _DELAY_microseconds
                 _DELAY_milliseconds
                  _SYSTEM_Initialize
 ---------------------------------------------------------------------------------
 (1) _SYSTEM_Initialize                                    0     0      0       0
              _OSCILLATOR_Initialize
             _PIN_MANAGER_Initialize
                     _WDT_Initialize
 ---------------------------------------------------------------------------------
 (2) _WDT_Initialize                                       0     0      0       0
 ---------------------------------------------------------------------------------
 (2) _PIN_MANAGER_Initialize                               0     0      0       0
 ---------------------------------------------------------------------------------
 (2) _OSCILLATOR_Initialize                                0     0      0       0
 ---------------------------------------------------------------------------------
 (1) _DELAY_milliseconds                                   3     1      2     554
                                              0 COMMON     3     1      2
 ---------------------------------------------------------------------------------
 (1) _DELAY_microseconds                                   2     0      2    3465
                                              0 COMMON     2     0      2
 ---------------------------------------------------------------------------------
 Estimated maximum stack depth 2
 ---------------------------------------------------------------------------------

 Call Graph Graphs:

 _main (ROOT)
   _DELAY_microseconds
   _DELAY_milliseconds
   _SYSTEM_Initialize
     _OSCILLATOR_Initialize
     _PIN_MANAGER_Initialize
     _WDT_Initialize

 Address spaces:
Name               Size   Autos  Total    Cost      Usage
BIGRAM             1F0      0       0       0        0.0%
NULL                 0      0       0       0        0.0%
CODE                 0      0       0       0        0.0%
BITCOMMON            E      0       0       1        0.0%
BITSFR0              0      0       0       1        0.0%
SFR0                 0      0       0       1        0.0%
COMMON               E      6       6       2       42.9%
BITSFR1              0      0       0       2        0.0%
SFR1                 0      0       0       2        0.0%
BITSFR2              0      0       0       3        0.0%
SFR2                 0      0       0       3        0.0%
STACK                0      0       0       3        0.0%
BITSFR3              0      0       0       4        0.0%
SFR3                 0      0       0       4        0.0%
ABS                  0      0      22       4        0.0%
BITBANK0            50      0       0       5        0.0%
BITSFR4              0      0       0       5        0.0%
SFR4                 0      0       0       5        0.0%
BANK0               50     10      1C       6       35.0%
BITSFR5              0      0       0       6        0.0%
SFR5                 0      0       0       6        0.0%
BITBANK1            50      0       0       7        0.0%
BITSFR6              0      0       0       7        0.0%
SFR6                 0      0       0       7        0.0%
BANK1               50      0       0       8        0.0%
BITSFR7              0      0       0       8        0.0%
SFR7                 0      0       0       8        0.0%
BITBANK2            50      0       0       9        0.0%
BITSFR8              0      0       0       9        0.0%
SFR8                 0      0       0       9        0.0%
BANK2               50      0       0      10        0.0%
BITSFR9              0      0       0      10        0.0%
SFR9                 0      0       0      10        0.0%
BITBANK3            50      0       0      11        0.0%
BITSFR10             0      0       0      11        0.0%
SFR10                0      0       0      11        0.0%
BANK3               50      0       0      12        0.0%
BITSFR11             0      0       0      12        0.0%
SFR11                0      0       0      12        0.0%
BITBANK4            50      0       0      13        0.0%
BITSFR12             0      0       0      13        0.0%
SFR12                0      0       0      13        0.0%
BANK4               50      0       0      14        0.0%
BITSFR13             0      0       0      14        0.0%
SFR13                0      0       0      14        0.0%
BITBANK5            50      0       0      15        0.0%
BITSFR14             0      0       0      15        0.0%
SFR14                0      0       0      15        0.0%
BANK5               50      0       0      16        0.0%
BITSFR15             0      0       0      16        0.0%
SFR15                0      0       0      16        0.0%
BITBANK6            10      0       0      17        0.0%
BITSFR16             0      0       0      17        0.0%
SFR16                0      0       0      17        0.0%
BANK6               10      0       0      18        0.0%
BITSFR17             0      0       0      18        0.0%
SFR17                0      0       0      18        0.0%
BITSFR18             0      0       0      19        0.0%
SFR18                0      0       0      19        0.0%
DATA                 0      0      22      19        0.0%
BITSFR19             0      0       0      20        0.0%
SFR19                0      0       0      20        0.0%
BITSFR20             0      0       0      21        0.0%
SFR20                0      0       0      21        0.0%
BITSFR21             0      0       0      22        0.0%
SFR21                0      0       0      22        0.0%
BITSFR22             0      0       0      23        0.0%
SFR22                0      0       0      23        0.0%
BITSFR23             0      0       0      24        0.0%
SFR23                0      0       0      24        0.0%
BITSFR24             0      0       0      25        0.0%
SFR24                0      0       0      25        0.0%
BITSFR25             0      0       0      26        0.0%
SFR25                0      0       0      26        0.0%
BITSFR26             0      0       0      27        0.0%
SFR26                0      0       0      27        0.0%
BITSFR27             0      0       0      28        0.0%
SFR27                0      0       0      28        0.0%
BITSFR28             0      0       0      29        0.0%
SFR28                0      0       0      29        0.0%
BITSFR29             0      0       0      30        0.0%
SFR29                0      0       0      30        0.0%
BITSFR30             0      0       0      31        0.0%
SFR30                0      0       0      31        0.0%
BITSFR31             0      0       0      32        0.0%
SFR31                0      0       0      32        0.0%


Microchip Technology PIC Macro Assembler V2.05 build -831301201 
Symbol Table                                                                                   Mon May 25 16:26:47 2020

                    __CFG_CP$OFF 0000                               l11 0589                               l15 0599  
                             l39 07F0                      __CFG_LVP$ON 0000                              l945 059B  
                            l939 0577                              u100 05D9                              u115 07B5  
                            u125 078A                              u137 0583                              u147 0591  
     __end_of_DELAY_milliseconds 0589                     __CFG_BORV$LO 0000                              wreg 0009  
                   __CFG_IESO$ON 0000                             l1157 0779                             _LATA 010C  
                           _LATB 010D                             _LATC 010E                             _WPUA 020C  
                           _WPUB 020D                             _WPUC 020E                     __CFG_WRT$OFF 0000  
                  __CFG_FCMEN$ON 0000                             _main 05CF                             fsr0h 0005  
                           fsr1h 0007                             fsr0l 0004                             indf1 0001  
                           fsr1l 0006                             btemp 007E                      main@tempstr 0020  
                  __CFG_BOREN$ON 0000                             start 0002                    __CFG_MCLRE$ON 0000  
 __size_of_OSCILLATOR_Initialize 0008    __end_of_OSCILLATOR_Initialize 0562                            ?_main 0070  
                  __CFG_WDTE$OFF 0000                            _TRISA 008C                            _TRISB 008D  
                          _TRISC 008E                   _WDT_Initialize 0550                            main@i 002E  
                          status 0003                            wtemp0 007E                  __initialization 07F2  
                   __end_of_main 07F2                   __CFG_LPBOR$OFF 0000                           ??_main 0073  
                 __CFG_PLLEN$OFF 0000           __end_of_WDT_Initialize 0554                   __CFG_ZCDDIS$ON 0000  
                         _ANSELA 018C                           _ANSELB 018D                           _ANSELC 018E  
                         _BORCON 0116                           _ODCONA 028C                           _ODCONB 028D  
                         _ODCONC 028E                           _INLVLA 038C                           _INLVLB 038D  
                         _INLVLC 038E                           _OSCCON 0099                           _WDTCON 0097  
                 __CFG_PWRTE$OFF 0000                   __CFG_STVREN$ON 0000                  ?_WDT_Initialize 0070  
              _SYSTEM_Initialize 0562          __end_of__initialization 07FD               ?_SYSTEM_Initialize 0070  
                 __pcstackCOMMON 0070                     __pidataBANK0 056B              ??_SYSTEM_Initialize 0070  
             _DELAY_microseconds 0589                   _OPTION_REGbits 0095              ?_DELAY_microseconds 0070  
      __end_of_SYSTEM_Initialize 056B               _DELAY_milliseconds 0577             ??_DELAY_microseconds 0072  
            ?_DELAY_milliseconds 0070                       __pmaintext 05CF             ??_DELAY_milliseconds 0072  
                        _OSCSTAT 009A                          _OSCTUNE 0098                          _SLRCONA 030C  
                        _SLRCONB 030D                          _SLRCONC 030E                          __ptext1 0562  
                        __ptext2 0550                          __ptext3 05A6                          __ptext4 055A  
                        __ptext5 0577                          __ptext6 0589            _OSCILLATOR_Initialize 055A  
       ??_PIN_MANAGER_Initialize 0070       __size_of_SYSTEM_Initialize 0009             end_of_initialization 07FD  
                        init_ram 0554                          initloop 0555                 ??_WDT_Initialize 0070  
               __CFG_FOSC$INTOSC 0000                   main@stringsize 002C           ?_OSCILLATOR_Initialize 0070  
            start_initialization 07F2  __size_of_PIN_MANAGER_Initialize 0029                      __pdataBANK0 0030  
                      ___latbits 0001                    __pcstackBANK0 0020      __size_of_DELAY_microseconds 001D  
         _PIN_MANAGER_Initialize 05A6                 __CFG_PPS1WAY$OFF 0000   DELAY_microseconds@microseconds 0070  
    __size_of_DELAY_milliseconds 0012                         _LATCbits 010E   DELAY_milliseconds@milliseconds 0070  
                      main@F4388 0030          ??_OSCILLATOR_Initialize 0070                    __size_of_main 0223  
        __size_of_WDT_Initialize 0004          ?_PIN_MANAGER_Initialize 0070                __CFG_CLKOUTEN$OFF 0000  
 __end_of_PIN_MANAGER_Initialize 05CF       __end_of_DELAY_microseconds 05A6  
